(dp0
S'jazz.00065.au'
p1
S'https://www.dropbox.com/sh/ceji0dmoyie2orq/AACSXKkbt86buCXGw74tXdl0a/jazz.00065.au?dl=1'
p2
sS'jazz.00020.au'
p3
S'https://www.dropbox.com/sh/ceji0dmoyie2orq/AADaXjgvyxg_7Qq6D_V1uie_a/jazz.00020.au?dl=1'
p4
sS'jazz.00048.au'
p5
S'https://www.dropbox.com/sh/ceji0dmoyie2orq/AABz31OIYyt8dtSY1cy6HQYia/jazz.00048.au?dl=1'
p6
sS'country.00043.au'
p7
S'https://www.dropbox.com/sh/tyz3t14h5r5i49n/AAC3OZBGkf999qbY1qZOm9gla/country.00043.au?dl=1'
p8
sS'jazz.00022.au'
p9
S'https://www.dropbox.com/sh/ceji0dmoyie2orq/AABEPz25SRK1YqGEYZcEMXoYa/jazz.00022.au?dl=1'
p10
sS'country.00076.au'
p11
S'https://www.dropbox.com/sh/tyz3t14h5r5i49n/AAA_58YSI4JjMGNgqhXj3IeRa/country.00076.au?dl=1'
p12
sS'blues.00056.au'
p13
S'https://www.dropbox.com/sh/afegxsw8f41vfbm/AAAO8Sca6jF0kJXvdj2XDCtka/blues.00056.au?dl=1'
p14
sS'disco.00090.au'
p15
S'https://www.dropbox.com/sh/raf3ew7bvle3z2p/AADFbqMqsHDlijSjuZGUN-1wa/disco.00090.au?dl=1'
p16
sS'country.00045.au'
p17
S'https://www.dropbox.com/sh/tyz3t14h5r5i49n/AABnUjH0tnQIcNqtfLrufr_la/country.00045.au?dl=1'
p18
sS'country.00066.au'
p19
S'https://www.dropbox.com/sh/tyz3t14h5r5i49n/AAAle8MY75rbWMBLNEGYDfbGa/country.00066.au?dl=1'
p20
sS'country.00039.au'
p21
S'https://www.dropbox.com/sh/tyz3t14h5r5i49n/AAC6nK9CJHWmiTSzm3J3VgFUa/country.00039.au?dl=1'
p22
sS'metal.00095.au'
p23
S'https://www.dropbox.com/sh/gqhgkkuvg6akab8/AACRs49IG30-HXfonn1-PKTGa/metal.00095.au?dl=1'
p24
sS'reggae.00060.au'
p25
S'https://www.dropbox.com/sh/6unjnco4qqplysb/AADB6jNFbfYtpDB30lz_v2COa/reggae.00060.au?dl=1'
p26
sS'classical.00000.au'
p27
S'https://www.dropbox.com/sh/1cctr3dfrjccpdy/AADXvMP7Er31OrP3ksmXokgqa/classical.00000.au?dl=1'
p28
sS'classical.00073.au'
p29
S'https://www.dropbox.com/sh/1cctr3dfrjccpdy/AACr63tyBgxUnxTw1Z2r1J-Ha/classical.00073.au?dl=1'
p30
sS'hiphop.00010.au'
p31
S'https://www.dropbox.com/sh/rknigscckkp15et/AADfkqT3dVXG20Oc1jKcktfLa/hiphop.00010.au?dl=1'
p32
sS'metal.00014.au'
p33
S'https://www.dropbox.com/sh/gqhgkkuvg6akab8/AABmp2P9jOFtC0hOSAiMKitGa/metal.00014.au?dl=1'
p34
sS'classical.00030.au'
p35
S'https://www.dropbox.com/sh/1cctr3dfrjccpdy/AAAsloYYv1AVzi8RrrK07K2Va/classical.00030.au?dl=1'
p36
sS'jazz.00067.au'
p37
S'https://www.dropbox.com/sh/ceji0dmoyie2orq/AAAJEXoPkFeNTVCGmjU1F8lDa/jazz.00067.au?dl=1'
p38
sS'jazz.00086.au'
p39
S'https://www.dropbox.com/sh/ceji0dmoyie2orq/AACiQq9Qhkef1pos9bV3QSLwa/jazz.00086.au?dl=1'
p40
sS'country.00082.au'
p41
S'https://www.dropbox.com/sh/tyz3t14h5r5i49n/AAD6D3t3abqe5sOp87Ih-jEka/country.00082.au?dl=1'
p42
sS'classical.00032.au'
p43
S'https://www.dropbox.com/sh/1cctr3dfrjccpdy/AACMKETDGChruPThkhdq8sQWa/classical.00032.au?dl=1'
p44
sS'reggae.00099.au'
p45
S'https://www.dropbox.com/sh/6unjnco4qqplysb/AAA7-zh9rMMdXeAsoP6gUl6fa/reggae.00099.au?dl=1'
p46
sS'disco.00017.au'
p47
S'https://www.dropbox.com/sh/raf3ew7bvle3z2p/AAAsvzKPVpYw83EKqGD2iJraa/disco.00017.au?dl=1'
p48
sS'pop.00017.au'
p49
S'https://www.dropbox.com/sh/r7a0ya4679z1w1s/AACpASA6zZl1mc7sJFtT7QPua/pop.00017.au?dl=1'
p50
sS'blues.00078.au'
p51
S'https://www.dropbox.com/sh/afegxsw8f41vfbm/AAC1wSTQlfXUAZxZQLlq194aa/blues.00078.au?dl=1'
p52
sS'metal.00040.au'
p53
S'https://www.dropbox.com/sh/gqhgkkuvg6akab8/AACIGW1w4oGq8crvvvbC174oa/metal.00040.au?dl=1'
p54
sS'disco.00074.au'
p55
S'https://www.dropbox.com/sh/raf3ew7bvle3z2p/AADFL3qVKeFFaQ3DgHQlnC01a/disco.00074.au?dl=1'
p56
sS'country.00074.au'
p57
S'https://www.dropbox.com/sh/tyz3t14h5r5i49n/AAAQWJpvwtP60-VzVak0McoFa/country.00074.au?dl=1'
p58
sS'blues.00028.au'
p59
S'https://www.dropbox.com/sh/afegxsw8f41vfbm/AABDGHEs8ElpAyrEqizu-KcRa/blues.00028.au?dl=1'
p60
sS'jazz.00000.au'
p61
S'https://www.dropbox.com/sh/rknigscckkp15et/AAC-gA2OLdoS9yFiXoUgxDlpa/jazz.00000.au?dl=1'
p62
sS'jazz.00093.au'
p63
S'https://www.dropbox.com/sh/ceji0dmoyie2orq/AACCAggSdbHfR49K1j9V70GFa/jazz.00093.au?dl=1'
p64
sS'country.00046.au'
p65
S'https://www.dropbox.com/sh/tyz3t14h5r5i49n/AADA0eO-I-x99VI8_v7Ah8sCa/country.00046.au?dl=1'
p66
sS'pop.00060.au'
p67
S'https://www.dropbox.com/sh/r7a0ya4679z1w1s/AADNVlIqw2e57n0vxM3xxs_Fa/pop.00060.au?dl=1'
p68
sS'reggae.00071.au'
p69
S'https://www.dropbox.com/sh/6unjnco4qqplysb/AACuuleV_oOwul7zsumEciVLa/reggae.00071.au?dl=1'
p70
sS'blues.00067.au'
p71
S'https://www.dropbox.com/sh/afegxsw8f41vfbm/AACxGp6q5wluajmwCy420ZBKa/blues.00067.au?dl=1'
p72
sS'rock.00066.au'
p73
S'https://www.dropbox.com/sh/uotvtqu4g8fcu63/AADUL14tCVY4grghRQWxGu8ua/rock.00066.au?dl=1'
p74
sS'rock.00033.au'
p75
S'https://www.dropbox.com/sh/uotvtqu4g8fcu63/AACPDwAEjMRZDEaiem1vJlTBa/rock.00033.au?dl=1'
p76
sS'reggae.00042.au'
p77
S'https://www.dropbox.com/sh/6unjnco4qqplysb/AADa987FaC8fSilDd1NRheIea/reggae.00042.au?dl=1'
p78
sS'blues.00017.au'
p79
S'https://www.dropbox.com/sh/afegxsw8f41vfbm/AABx9EwYaOISmBZxoNdW2fZZa/blues.00017.au?dl=1'
p80
sS'hiphop.00054.au'
p81
S'https://www.dropbox.com/sh/rknigscckkp15et/AAA8_lE2wOG0F4fTRIv47Aboa/hiphop.00054.au?dl=1'
p82
sS'rock.00058.au'
p83
S'https://www.dropbox.com/sh/uotvtqu4g8fcu63/AAAT49SR8GtiidHJxjvPmyyEa/rock.00058.au?dl=1'
p84
sS'country.00048.au'
p85
S'https://www.dropbox.com/sh/tyz3t14h5r5i49n/AACxmPNCmyPHBbtbtFOm5lzfa/country.00048.au?dl=1'
p86
sS'metal.00037.au'
p87
S'https://www.dropbox.com/sh/gqhgkkuvg6akab8/AABINsrRu1tN3CkcGXwDs7XHa/metal.00037.au?dl=1'
p88
sS'country.00027.au'
p89
S'https://www.dropbox.com/sh/tyz3t14h5r5i49n/AABKaMbM6H_kB6H6Zoqx-eOqa/country.00027.au?dl=1'
p90
sS'reggae.00040.au'
p91
S'https://www.dropbox.com/sh/6unjnco4qqplysb/AAC7fIRGDL1hu5NCi_LN21Dla/reggae.00040.au?dl=1'
p92
sS'classical.00009.au'
p93
S'https://www.dropbox.com/sh/1cctr3dfrjccpdy/AAD4SddRfSkdnYN-L_A1QLLxa/classical.00009.au?dl=1'
p94
sS'hiphop.00015.au'
p95
S'https://www.dropbox.com/sh/rknigscckkp15et/AAD4Z_JhmC7sxtMxS3muXXmIa/hiphop.00015.au?dl=1'
p96
sS'pop.00053.au'
p97
S'https://www.dropbox.com/sh/r7a0ya4679z1w1s/AABb6JGnRR_jefrcfw5wJXHVa/pop.00053.au?dl=1'
p98
sS'disco.00048.au'
p99
S'https://www.dropbox.com/sh/raf3ew7bvle3z2p/AACqMDJqziXr-CKU70DTVkrZa/disco.00048.au?dl=1'
p100
sS'jazz.00032.au'
p101
S'https://www.dropbox.com/sh/ceji0dmoyie2orq/AADGpyt3DEAUTUXBA-PY0oT0a/jazz.00032.au?dl=1'
p102
sS'hiphop.00048.au'
p103
S'https://www.dropbox.com/sh/rknigscckkp15et/AACxDmA1HEUQ8Z6tkrSV-Insa/hiphop.00048.au?dl=1'
p104
sS'jazz.00043.au'
p105
S'https://www.dropbox.com/sh/ceji0dmoyie2orq/AAD-MBy6QO3829Mzl5SqCyX6a/jazz.00043.au?dl=1'
p106
sS'reggae.00005.au'
p107
S'https://www.dropbox.com/sh/6unjnco4qqplysb/AAD0V4nSt5AYbJkdNQfpc2OVa/reggae.00005.au?dl=1'
p108
sS'metal.00042.au'
p109
S'https://www.dropbox.com/sh/gqhgkkuvg6akab8/AADQQpp4YakWmICa2wXvgrHta/metal.00042.au?dl=1'
p110
sS'reggae.00076.au'
p111
S'https://www.dropbox.com/sh/6unjnco4qqplysb/AACsqRotd_eUZzVVoMd4XiIfa/reggae.00076.au?dl=1'
p112
sS'rock.00061.au'
p113
S'https://www.dropbox.com/sh/uotvtqu4g8fcu63/AAChUVkaNA3qF7Fpa6aZdFsfa/rock.00061.au?dl=1'
p114
sS'reggae.00084.au'
p115
S'https://www.dropbox.com/sh/6unjnco4qqplysb/AACLd0jPlGlB4tT6WjqkM0nua/reggae.00084.au?dl=1'
p116
sS'pop.00085.au'
p117
S'https://www.dropbox.com/sh/r7a0ya4679z1w1s/AAAu_nUbVTYJntj862FPCZoFa/pop.00085.au?dl=1'
p118
sS'country.00078.au'
p119
S'https://www.dropbox.com/sh/tyz3t14h5r5i49n/AABd92wLaOuDlXxbGtQXS2P0a/country.00078.au?dl=1'
p120
sS'jazz.00095.au'
p121
S'https://www.dropbox.com/sh/ceji0dmoyie2orq/AADxWJHPWngZ2y6-6aJxBMW6a/jazz.00095.au?dl=1'
p122
sS'disco.00082.au'
p123
S'https://www.dropbox.com/sh/raf3ew7bvle3z2p/AACSY-AYwlHfjIgoOF1SQK6fa/disco.00082.au?dl=1'
p124
sS'disco.00036.au'
p125
S'https://www.dropbox.com/sh/raf3ew7bvle3z2p/AAChe_iH8qY5W0qjvXvRf8JQa/disco.00036.au?dl=1'
p126
sS'hiphop.00049.au'
p127
S'https://www.dropbox.com/sh/rknigscckkp15et/AACa-tFUWtFWMMFw6IcP1-qVa/hiphop.00049.au?dl=1'
p128
sS'hiphop.00071.au'
p129
S'https://www.dropbox.com/sh/rknigscckkp15et/AADNnesBW0OzdilqNUVan-v7a/hiphop.00071.au?dl=1'
p130
sS'rock.00000.au'
p131
S'https://www.dropbox.com/sh/uotvtqu4g8fcu63/AADxGL0LAH_m_7y0u1HNlj0Ma/rock.00000.au?dl=1'
p132
sS'rock.00082.au'
p133
S'https://www.dropbox.com/sh/uotvtqu4g8fcu63/AACzGQpWgVZ4xAK_jMufuPBva/rock.00082.au?dl=1'
p134
sS'rock.00098.au'
p135
S'https://www.dropbox.com/sh/uotvtqu4g8fcu63/AAAN6b5Qlu7Wc--MEr1CMd4Ua/rock.00098.au?dl=1'
p136
sS'country.00090.au'
p137
S'https://www.dropbox.com/sh/tyz3t14h5r5i49n/AABCwMgLMHsW8asEZ9n0nw0Ka/country.00090.au?dl=1'
p138
sS'metal.00031.au'
p139
S'https://www.dropbox.com/sh/gqhgkkuvg6akab8/AACQPG3b3QVfr_OFSfCbwJcia/metal.00031.au?dl=1'
p140
sS'metal.00033.au'
p141
S'https://www.dropbox.com/sh/gqhgkkuvg6akab8/AAB0577h4vFRoboDVai_mjLda/metal.00033.au?dl=1'
p142
sS'disco.00029.au'
p143
S'https://www.dropbox.com/sh/raf3ew7bvle3z2p/AAARDyk6orbBBElliT8i_zjza/disco.00029.au?dl=1'
p144
sS'country.00067.au'
p145
S'https://www.dropbox.com/sh/tyz3t14h5r5i49n/AAD_okPeZI5yNn0zKj_zmyGRa/country.00067.au?dl=1'
p146
sS'rock.00037.au'
p147
S'https://www.dropbox.com/sh/uotvtqu4g8fcu63/AADvBP3njR4uAlPii5y2uolua/rock.00037.au?dl=1'
p148
sS'jazz.00012.au'
p149
S'https://www.dropbox.com/sh/rknigscckkp15et/AAD6oQbHeGW4OGBB-FeBT4ZFa/jazz.00012.au?dl=1'
p150
sS'reggae.00046.au'
p151
S'https://www.dropbox.com/sh/6unjnco4qqplysb/AAAPUU1VUbj0aq8Lc2wO7sMsa/reggae.00046.au?dl=1'
p152
sS'metal.00006.au'
p153
S'https://www.dropbox.com/sh/gqhgkkuvg6akab8/AABJZ_TGHjnGcxdom71gWXWGa/metal.00006.au?dl=1'
p154
sS'metal.00013.au'
p155
S'https://www.dropbox.com/sh/gqhgkkuvg6akab8/AAANwAqvh63VpmJ5OYo207Dsa/metal.00013.au?dl=1'
p156
sS'classical.00076.au'
p157
S'https://www.dropbox.com/sh/1cctr3dfrjccpdy/AAD8PElCdlPHIVqZl6ND5QH_a/classical.00076.au?dl=1'
p158
sS'reggae.00050.au'
p159
S'https://www.dropbox.com/sh/6unjnco4qqplysb/AAAkXMtlEhONNcByRZcqRgd9a/reggae.00050.au?dl=1'
p160
sS'metal.00008.au'
p161
S'https://www.dropbox.com/sh/gqhgkkuvg6akab8/AABVOLxzBc_LGwUceNfvvEUHa/metal.00008.au?dl=1'
p162
sS'pop.00070.au'
p163
S'https://www.dropbox.com/sh/r7a0ya4679z1w1s/AAAVL3aLQn2mPb14cm_c-zlta/pop.00070.au?dl=1'
p164
sS'metal.00083.au'
p165
S'https://www.dropbox.com/sh/gqhgkkuvg6akab8/AABoflpi0latInffSY7MJxB3a/metal.00083.au?dl=1'
p166
sS'metal.00085.au'
p167
S'https://www.dropbox.com/sh/gqhgkkuvg6akab8/AACPSusTw4AUuJTJfngiP9e7a/metal.00085.au?dl=1'
p168
sS'hiphop.00042.au'
p169
S'https://www.dropbox.com/sh/rknigscckkp15et/AAACdJQO050JLNQyNAfy-Atda/hiphop.00042.au?dl=1'
p170
sS'country.00054.au'
p171
S'https://www.dropbox.com/sh/tyz3t14h5r5i49n/AAD1_FM61X9rbtoPIOe3BxJka/country.00054.au?dl=1'
p172
sS'pop.00025.au'
p173
S'https://www.dropbox.com/sh/r7a0ya4679z1w1s/AADb6cA7940xS6HArFYeA8vHa/pop.00025.au?dl=1'
p174
sS'country.00016.au'
p175
S'https://www.dropbox.com/sh/tyz3t14h5r5i49n/AAAu-qJ3_qzu_zLX95eD-O6Ya/country.00016.au?dl=1'
p176
sS'hiphop.00028.au'
p177
S'https://www.dropbox.com/sh/rknigscckkp15et/AABu0fMdij20KdiGkMGnkFjGa/hiphop.00028.au?dl=1'
p178
sS'classical.00022.au'
p179
S'https://www.dropbox.com/sh/1cctr3dfrjccpdy/AAA-Ts3M4jeuwqK9_30W7-WRa/classical.00022.au?dl=1'
p180
sS'classical.00037.au'
p181
S'https://www.dropbox.com/sh/1cctr3dfrjccpdy/AAAck1YIJc0_celdbYoGLNQpa/classical.00037.au?dl=1'
p182
sS'classical.00048.au'
p183
S'https://www.dropbox.com/sh/1cctr3dfrjccpdy/AAAOIcbzu1-WZwsXNroBmXMsa/classical.00048.au?dl=1'
p184
sS'pop.00034.au'
p185
S'https://www.dropbox.com/sh/r7a0ya4679z1w1s/AABjY5ZKJ7nEJgU-HiXReWnAa/pop.00034.au?dl=1'
p186
sS'classical.00039.au'
p187
S'https://www.dropbox.com/sh/1cctr3dfrjccpdy/AAD4ceOeN9YDN2XcNagLlxVqa/classical.00039.au?dl=1'
p188
sS'pop.00074.au'
p189
S'https://www.dropbox.com/sh/r7a0ya4679z1w1s/AAC2O69Sr2wLIhlu9ZARtXOXa/pop.00074.au?dl=1'
p190
sS'blues.00021.au'
p191
S'https://www.dropbox.com/sh/afegxsw8f41vfbm/AABUqnhhU4if9uoci2fcMPS-a/blues.00021.au?dl=1'
p192
sS'pop.00072.au'
p193
S'https://www.dropbox.com/sh/r7a0ya4679z1w1s/AADNAgApDdJF6mgpBr_eSSc8a/pop.00072.au?dl=1'
p194
sS'reggae.00024.au'
p195
S'https://www.dropbox.com/sh/6unjnco4qqplysb/AADFGay6VhgltfF5ZqA8QCZua/reggae.00024.au?dl=1'
p196
sS'reggae.00081.au'
p197
S'https://www.dropbox.com/sh/6unjnco4qqplysb/AACuRyyhoWSdC0SRjWNQ6eM1a/reggae.00081.au?dl=1'
p198
sS'blues.00092.au'
p199
S'https://www.dropbox.com/sh/afegxsw8f41vfbm/AABIFJAqzxviR78a7ChUCCQma/blues.00092.au?dl=1'
p200
sS'hiphop.00030.au'
p201
S'https://www.dropbox.com/sh/rknigscckkp15et/AADDD48lMmKzBAa2K38CqbP_a/hiphop.00030.au?dl=1'
p202
sS'hiphop.00032.au'
p203
S'https://www.dropbox.com/sh/rknigscckkp15et/AACG16cy0ZQr2dbm4y9SY6ita/hiphop.00032.au?dl=1'
p204
sS'metal.00050.au'
p205
S'https://www.dropbox.com/sh/gqhgkkuvg6akab8/AABagNgByON1qYzCM3xSgRGGa/metal.00050.au?dl=1'
p206
sS'reggae.00098.au'
p207
S'https://www.dropbox.com/sh/6unjnco4qqplysb/AAD2CsFHPCfEh1ITtXLdErhja/reggae.00098.au?dl=1'
p208
sS'jazz.00038.au'
p209
S'https://www.dropbox.com/sh/ceji0dmoyie2orq/AAA49j9dVZTFZuiLiiDR-Nl2a/jazz.00038.au?dl=1'
p210
sS'rock.00093.au'
p211
S'https://www.dropbox.com/sh/uotvtqu4g8fcu63/AADDC_syoUeAajLl2y_OsNkNa/rock.00093.au?dl=1'
p212
sS'blues.00042.au'
p213
S'https://www.dropbox.com/sh/afegxsw8f41vfbm/AAA7b3zCRRc_TMcXbhI52yFwa/blues.00042.au?dl=1'
p214
sS'hiphop.00061.au'
p215
S'https://www.dropbox.com/sh/rknigscckkp15et/AADaA-R6kTuYBrEXxghQxjEaa/hiphop.00061.au?dl=1'
p216
sS'classical.00045.au'
p217
S'https://www.dropbox.com/sh/1cctr3dfrjccpdy/AAC7HFLlimdwycX2O-Ltqpm1a/classical.00045.au?dl=1'
p218
sS'metal.00039.au'
p219
S'https://www.dropbox.com/sh/gqhgkkuvg6akab8/AABb2k9f3RRnYE-1F7C9Tbpra/metal.00039.au?dl=1'
p220
sS'disco.00037.au'
p221
S'https://www.dropbox.com/sh/raf3ew7bvle3z2p/AAB362NEdm9g6cZzHJk1CR5ja/disco.00037.au?dl=1'
p222
sS'metal.00069.au'
p223
S'https://www.dropbox.com/sh/gqhgkkuvg6akab8/AAC7XutvpWr41x5s5p9ZlHnHa/metal.00069.au?dl=1'
p224
sS'hiphop.00067.au'
p225
S'https://www.dropbox.com/sh/rknigscckkp15et/AADXYR71toAcPkA-7CMNuLcXa/hiphop.00067.au?dl=1'
p226
sS'rock.00041.au'
p227
S'https://www.dropbox.com/sh/uotvtqu4g8fcu63/AAA8PbGspk9C_zVvfthBhr99a/rock.00041.au?dl=1'
p228
sS'reggae.00052.au'
p229
S'https://www.dropbox.com/sh/6unjnco4qqplysb/AAA2PQkULnOFHFDioNYKkcmNa/reggae.00052.au?dl=1'
p230
sS'classical.00058.au'
p231
S'https://www.dropbox.com/sh/1cctr3dfrjccpdy/AACzGUC3opJJfwqmEtpVBZMHa/classical.00058.au?dl=1'
p232
sS'disco.00085.au'
p233
S'https://www.dropbox.com/sh/raf3ew7bvle3z2p/AABsLbTFvycrjlawuf40weY1a/disco.00085.au?dl=1'
p234
sS'disco.00025.au'
p235
S'https://www.dropbox.com/sh/raf3ew7bvle3z2p/AACuju96CpLFI0ihoQmx6fdba/disco.00025.au?dl=1'
p236
sS'country.00000.au'
p237
S'https://www.dropbox.com/sh/tyz3t14h5r5i49n/AABWt3lws-Qxptrx-m-z6x1_a/country.00000.au?dl=1'
p238
sS'disco.00027.au'
p239
S'https://www.dropbox.com/sh/raf3ew7bvle3z2p/AACe-QgQT_WfuGSZhqrUN157a/disco.00027.au?dl=1'
p240
sS'country.00019.au'
p241
S'https://www.dropbox.com/sh/tyz3t14h5r5i49n/AAA_GxiuWGza9kuxTzHK4dK6a/country.00019.au?dl=1'
p242
sS'blues.00079.au'
p243
S'https://www.dropbox.com/sh/afegxsw8f41vfbm/AACC773-FNN-VmWuVyPMO3PDa/blues.00079.au?dl=1'
p244
sS'metal.00046.au'
p245
S'https://www.dropbox.com/sh/gqhgkkuvg6akab8/AACM7pC2WU5Os5GIlc44STqca/metal.00046.au?dl=1'
p246
sS'country.00002.au'
p247
S'https://www.dropbox.com/sh/tyz3t14h5r5i49n/AACKdO7rq0QeUHLRG7WjxUI8a/country.00002.au?dl=1'
p248
sS'disco.00043.au'
p249
S'https://www.dropbox.com/sh/raf3ew7bvle3z2p/AADKAc2RllR0S-MWS9KYg8Z-a/disco.00043.au?dl=1'
p250
sS'pop.00021.au'
p251
S'https://www.dropbox.com/sh/r7a0ya4679z1w1s/AAAtTi_bDxCn12mxTuIvpd8Ka/pop.00021.au?dl=1'
p252
sS'hiphop.00052.au'
p253
S'https://www.dropbox.com/sh/rknigscckkp15et/AACx-A2SdyrRxLU6N1AaFOCEa/hiphop.00052.au?dl=1'
p254
sS'metal.00072.au'
p255
S'https://www.dropbox.com/sh/gqhgkkuvg6akab8/AACbIIws4_zlKSdEPHT3CT4va/metal.00072.au?dl=1'
p256
sS'country.00008.au'
p257
S'https://www.dropbox.com/sh/tyz3t14h5r5i49n/AABjjHijovOZGu1AWpwz5mGVa/country.00008.au?dl=1'
p258
sS'pop.00076.au'
p259
S'https://www.dropbox.com/sh/r7a0ya4679z1w1s/AAA4DsDpX9ZUZMdwPzRS02TDa/pop.00076.au?dl=1'
p260
sS'hiphop.00026.au'
p261
S'https://www.dropbox.com/sh/rknigscckkp15et/AAAiGS26LhlKQ36488x4Pfzba/hiphop.00026.au?dl=1'
p262
sS'blues.00023.au'
p263
S'https://www.dropbox.com/sh/afegxsw8f41vfbm/AABggcCLODVTrykCa87JJmq2a/blues.00023.au?dl=1'
p264
sS'metal.00058.au'
p265
S'https://www.dropbox.com/sh/gqhgkkuvg6akab8/AABiAiFVshjdqyIPN2VLkk1Ta/metal.00058.au?dl=1'
p266
sS'rock.00088.au'
p267
S'https://www.dropbox.com/sh/uotvtqu4g8fcu63/AAAzITcYOF1zSYkIvM8MvD9Na/rock.00088.au?dl=1'
p268
sS'blues.00057.au'
p269
S'https://www.dropbox.com/sh/afegxsw8f41vfbm/AAAgyF4kP5ptvRISMeuNQ8LKa/blues.00057.au?dl=1'
p270
sS'rock.00007.au'
p271
S'https://www.dropbox.com/sh/uotvtqu4g8fcu63/AABaEKawMCaSqdJkR6ueWvBAa/rock.00007.au?dl=1'
p272
sS'reggae.00026.au'
p273
S'https://www.dropbox.com/sh/6unjnco4qqplysb/AACKTAD5R7lDpeuV6YA9s77aa/reggae.00026.au?dl=1'
p274
sS'pop.00038.au'
p275
S'https://www.dropbox.com/sh/r7a0ya4679z1w1s/AAD1rv694TrUgRAEr_Z76DZja/pop.00038.au?dl=1'
p276
sS'rock.00005.au'
p277
S'https://www.dropbox.com/sh/uotvtqu4g8fcu63/AABtcCTkcJwClWjkr9PBSk49a/rock.00005.au?dl=1'
p278
sS'disco.00047.au'
p279
S'https://www.dropbox.com/sh/raf3ew7bvle3z2p/AAA41j_PXTxnoFC8llOJ_Cbfa/disco.00047.au?dl=1'
p280
sS'pop.00067.au'
p281
S'https://www.dropbox.com/sh/r7a0ya4679z1w1s/AACcJTyHbKXSwi_M667Hsi8da/pop.00067.au?dl=1'
p282
sS'country.00093.au'
p283
S'https://www.dropbox.com/sh/tyz3t14h5r5i49n/AAAVtbGzRB4dRqjfOlvjApyAa/country.00093.au?dl=1'
p284
sS'disco.00045.au'
p285
S'https://www.dropbox.com/sh/raf3ew7bvle3z2p/AAA9K7ou8AP3zv6Sd4ZuSD9ca/disco.00045.au?dl=1'
p286
sS'classical.00077.au'
p287
S'https://www.dropbox.com/sh/1cctr3dfrjccpdy/AAAGF2_LVN-FrfL8qJD5cycna/classical.00077.au?dl=1'
p288
sS'disco.00035.au'
p289
S'https://www.dropbox.com/sh/raf3ew7bvle3z2p/AAA_4_hZ-S80GzlOdE-yXpbXa/disco.00035.au?dl=1'
p290
sS'country.00041.au'
p291
S'https://www.dropbox.com/sh/tyz3t14h5r5i49n/AACxAErs6Is2ByrRM1H6vVGHa/country.00041.au?dl=1'
p292
sS'hiphop.00090.au'
p293
S'https://www.dropbox.com/sh/rknigscckkp15et/AAAMls_rVTD5ZUdTfMgaoKpNa/hiphop.00090.au?dl=1'
p294
sS'reggae.00032.au'
p295
S'https://www.dropbox.com/sh/6unjnco4qqplysb/AABrUb7Jm9K6REoAgU6xdnsPa/reggae.00032.au?dl=1'
p296
sS'blues.00044.au'
p297
S'https://www.dropbox.com/sh/afegxsw8f41vfbm/AADqDqkdCe1SWmHQ84djXOPUa/blues.00044.au?dl=1'
p298
sS'hiphop.00047.au'
p299
S'https://www.dropbox.com/sh/rknigscckkp15et/AAAubNTZWAJ9yhDhtiVHX5aaa/hiphop.00047.au?dl=1'
p300
sS'metal.00021.au'
p301
S'https://www.dropbox.com/sh/gqhgkkuvg6akab8/AAAo58tDP_CsS3fo7DrOj2FPa/metal.00021.au?dl=1'
p302
sS'blues.00050.au'
p303
S'https://www.dropbox.com/sh/afegxsw8f41vfbm/AABe7Xa0nfQsLIbX2IArfNKua/blues.00050.au?dl=1'
p304
sS'pop.00078.au'
p305
S'https://www.dropbox.com/sh/r7a0ya4679z1w1s/AABx7RSzMoEDfDsXWlC1V1bya/pop.00078.au?dl=1'
p306
sS'reggae.00030.au'
p307
S'https://www.dropbox.com/sh/6unjnco4qqplysb/AAC-cLmHPJ2HagmFwqjMYpVIa/reggae.00030.au?dl=1'
p308
sS'reggae.00078.au'
p309
S'https://www.dropbox.com/sh/6unjnco4qqplysb/AAAUopNcdF05pUamtde4f2sRa/reggae.00078.au?dl=1'
p310
sS'hiphop.00024.au'
p311
S'https://www.dropbox.com/sh/rknigscckkp15et/AAAAPQkv7Xt7WMq_Se0g7wRVa/hiphop.00024.au?dl=1'
p312
sS'hiphop.00089.au'
p313
S'https://www.dropbox.com/sh/rknigscckkp15et/AADfmMKkr1oQkwK4IrJBf5QXa/hiphop.00089.au?dl=1'
p314
sS'jazz.00058.au'
p315
S'https://www.dropbox.com/sh/ceji0dmoyie2orq/AAAVlgdSvdWGHIz29WBsq1S2a/jazz.00058.au?dl=1'
p316
sS'rock.00059.au'
p317
S'https://www.dropbox.com/sh/uotvtqu4g8fcu63/AADis2NUXQgzemddGnq3th9ba/rock.00059.au?dl=1'
p318
sS'pop.00051.au'
p319
S'https://www.dropbox.com/sh/r7a0ya4679z1w1s/AAAgdIXp0tzGNGFq-YBbbnoua/pop.00051.au?dl=1'
p320
sS'metal.00027.au'
p321
S'https://www.dropbox.com/sh/gqhgkkuvg6akab8/AAC2IFj3E1IVqP220sl4fxEga/metal.00027.au?dl=1'
p322
sS'disco.00080.au'
p323
S'https://www.dropbox.com/sh/raf3ew7bvle3z2p/AACQ4zqr_kS3Sf2cd-clTgNsa/disco.00080.au?dl=1'
p324
sS'blues.00024.au'
p325
S'https://www.dropbox.com/sh/afegxsw8f41vfbm/AACrf16MnuFy_2Ym0BqsPhmya/blues.00024.au?dl=1'
p326
sS'pop.00027.au'
p327
S'https://www.dropbox.com/sh/r7a0ya4679z1w1s/AABGmCvWV0MtEeWbL0lbl6X3a/pop.00027.au?dl=1'
p328
sS'reggae.00028.au'
p329
S'https://www.dropbox.com/sh/6unjnco4qqplysb/AAAk5LlY7muz_5s34XIDGvwna/reggae.00028.au?dl=1'
p330
sS'blues.00072.au'
p331
S'https://www.dropbox.com/sh/afegxsw8f41vfbm/AAAdNkMk3x79vj_BExEOtRdIa/blues.00072.au?dl=1'
p332
sS'disco.00011.au'
p333
S'https://www.dropbox.com/sh/raf3ew7bvle3z2p/AAC5SI5SHXtN0unZKReWFCYNa/disco.00011.au?dl=1'
p334
sS'country.00072.au'
p335
S'https://www.dropbox.com/sh/tyz3t14h5r5i49n/AAB-sk2lxJLSV0XWBZnxMqB9a/country.00072.au?dl=1'
p336
sS'reggae.00086.au'
p337
S'https://www.dropbox.com/sh/6unjnco4qqplysb/AAAP8Ri1QSk1MnQgu_xSGo4qa/reggae.00086.au?dl=1'
p338
sS'hiphop.00077.au'
p339
S'https://www.dropbox.com/sh/rknigscckkp15et/AABX9q8BuqIbmsMWQijc1uzua/hiphop.00077.au?dl=1'
p340
sS'pop.00014.au'
p341
S'https://www.dropbox.com/sh/r7a0ya4679z1w1s/AAAT33bRCy4iMQ6jVZEtv4zka/pop.00014.au?dl=1'
p342
sS'disco.00098.au'
p343
S'https://www.dropbox.com/sh/raf3ew7bvle3z2p/AABLSVP6JIFSWApowzqZ2iiPa/disco.00098.au?dl=1'
p344
sS'metal.00022.au'
p345
S'https://www.dropbox.com/sh/gqhgkkuvg6akab8/AABfrV5sLCim47VqLODlb7efa/metal.00022.au?dl=1'
p346
sS'reggae.00063.au'
p347
S'https://www.dropbox.com/sh/6unjnco4qqplysb/AAA31z2u5_RVKlEewzFR8LOta/reggae.00063.au?dl=1'
p348
sS'country.00091.au'
p349
S'https://www.dropbox.com/sh/tyz3t14h5r5i49n/AAAdomxZIpRdVSH6GYr5SGmca/country.00091.au?dl=1'
p350
sS'country.00095.au'
p351
S'https://www.dropbox.com/sh/tyz3t14h5r5i49n/AAAP8PbCR6iSKZx0VU4KYW23a/country.00095.au?dl=1'
p352
sS'jazz.00072.au'
p353
S'https://www.dropbox.com/sh/ceji0dmoyie2orq/AAAOx8tr5OqXyzWXBiGqAF-ra/jazz.00072.au?dl=1'
p354
sS'hiphop.00040.au'
p355
S'https://www.dropbox.com/sh/rknigscckkp15et/AAAiTQDMKK9SVHYKzpB8Ras7a/hiphop.00040.au?dl=1'
p356
sS'country.00065.au'
p357
S'https://www.dropbox.com/sh/tyz3t14h5r5i49n/AADg1KeoRMg37tvtqfwOFKGYa/country.00065.au?dl=1'
p358
sS'jazz.00008.au'
p359
S'https://www.dropbox.com/sh/rknigscckkp15et/AABIFSQKRgMb1bca6rFjKJF9a/jazz.00008.au?dl=1'
p360
sS'rock.00029.au'
p361
S'https://www.dropbox.com/sh/uotvtqu4g8fcu63/AAD3HXQliq_K1S0VnpxnKxfna/rock.00029.au?dl=1'
p362
sS'country.00010.au'
p363
S'https://www.dropbox.com/sh/tyz3t14h5r5i49n/AAAnIMsVLPpPn4R-O7sgJ9P9a/country.00010.au?dl=1'
p364
sS'pop.00036.au'
p365
S'https://www.dropbox.com/sh/r7a0ya4679z1w1s/AABvDlga1tpJtxaxvNi2kVzWa/pop.00036.au?dl=1'
p366
sS'reggae.00044.au'
p367
S'https://www.dropbox.com/sh/6unjnco4qqplysb/AAD79IwVZGhR-M5o8XChQMIfa/reggae.00044.au?dl=1'
p368
sS'rock.00035.au'
p369
S'https://www.dropbox.com/sh/uotvtqu4g8fcu63/AAC3DNitd0j45FyFy5hLrO0ta/rock.00035.au?dl=1'
p370
sS'country.00063.au'
p371
S'https://www.dropbox.com/sh/tyz3t14h5r5i49n/AAAS5Ce7npeB2rFoYOSKFjina/country.00063.au?dl=1'
p372
sS'country.00025.au'
p373
S'https://www.dropbox.com/sh/tyz3t14h5r5i49n/AACXF0uUBGhfjSxGzRHVcFqfa/country.00025.au?dl=1'
p374
sS'classical.00068.au'
p375
S'https://www.dropbox.com/sh/1cctr3dfrjccpdy/AACJzNfTWV3aAxBnw7jxNPnsa/classical.00068.au?dl=1'
p376
sS'rock.00011.au'
p377
S'https://www.dropbox.com/sh/uotvtqu4g8fcu63/AAAgzcHDwEsHPg0BqlDrwvixa/rock.00011.au?dl=1'
p378
sS'metal.00025.au'
p379
S'https://www.dropbox.com/sh/gqhgkkuvg6akab8/AAClg8J6RiyD1CnmPo1R-Viva/metal.00025.au?dl=1'
p380
sS'blues.00052.au'
p381
S'https://www.dropbox.com/sh/afegxsw8f41vfbm/AACLjUmZkqkEwVoUCgrszeuUa/blues.00052.au?dl=1'
p382
sS'classical.00066.au'
p383
S'https://www.dropbox.com/sh/1cctr3dfrjccpdy/AAD4VV8EzdxBc0GdE0br8ytfa/classical.00066.au?dl=1'
p384
sS'disco.00018.au'
p385
S'https://www.dropbox.com/sh/raf3ew7bvle3z2p/AABIW4-u52hvu20K9NQ5qMU1a/disco.00018.au?dl=1'
p386
sS'hiphop.00076.au'
p387
S'https://www.dropbox.com/sh/rknigscckkp15et/AACduCbcx3sYKcr-39ekiKaGa/hiphop.00076.au?dl=1'
p388
sS'classical.00035.au'
p389
S'https://www.dropbox.com/sh/1cctr3dfrjccpdy/AAAKMEd3IRk8qB1ZCT0XpESLa/classical.00035.au?dl=1'
p390
sS'pop.00028.au'
p391
S'https://www.dropbox.com/sh/r7a0ya4679z1w1s/AABSnv4Wrw13AEY9nrEJWiITa/pop.00028.au?dl=1'
p392
sS'pop.00057.au'
p393
S'https://www.dropbox.com/sh/r7a0ya4679z1w1s/AAAv3W3xGcCaQVuHpiD1BGbha/pop.00057.au?dl=1'
p394
sS'classical.00016.au'
p395
S'https://www.dropbox.com/sh/1cctr3dfrjccpdy/AABwoTjHR77VeES3fBsfvSmHa/classical.00016.au?dl=1'
p396
sS'metal.00015.au'
p397
S'https://www.dropbox.com/sh/gqhgkkuvg6akab8/AABZDDDyys824lsoGOXx8-ysa/metal.00015.au?dl=1'
p398
sS'hiphop.00034.au'
p399
S'https://www.dropbox.com/sh/rknigscckkp15et/AADbDNmc-O4oGWdUpJT9iI8Ya/hiphop.00034.au?dl=1'
p400
sS'pop.00055.au'
p401
S'https://www.dropbox.com/sh/r7a0ya4679z1w1s/AADHFuZq-frtvQcZpuALqChCa/pop.00055.au?dl=1'
p402
sS'classical.00014.au'
p403
S'https://www.dropbox.com/sh/1cctr3dfrjccpdy/AAAt5IwsJ3-o0Gt7qenBQ_oCa/classical.00014.au?dl=1'
p404
sS'classical.00012.au'
p405
S'https://www.dropbox.com/sh/1cctr3dfrjccpdy/AAAFqG5AigeQr4_gmqXGBc2Ua/classical.00012.au?dl=1'
p406
sS'pop.00031.au'
p407
S'https://www.dropbox.com/sh/r7a0ya4679z1w1s/AABeWJ0cuCoeJ-5kNhIWQMUGa/pop.00031.au?dl=1'
p408
sS'blues.00019.au'
p409
S'https://www.dropbox.com/sh/afegxsw8f41vfbm/AABmc3ptxLfBYOs3B3G74yjFa/blues.00019.au?dl=1'
p410
sS'country.00097.au'
p411
S'https://www.dropbox.com/sh/tyz3t14h5r5i49n/AAB-cCrGZSjjh8lQGSihDpuHa/country.00097.au?dl=1'
p412
sS'jazz.00054.au'
p413
S'https://www.dropbox.com/sh/ceji0dmoyie2orq/AADA88E6q8aTxAf0LqlWR6dHa/jazz.00054.au?dl=1'
p414
sS'metal.00009.au'
p415
S'https://www.dropbox.com/sh/gqhgkkuvg6akab8/AAASSrPpp896vbYN1o35rfW1a/metal.00009.au?dl=1'
p416
sS'country.00012.au'
p417
S'https://www.dropbox.com/sh/tyz3t14h5r5i49n/AACsNZsWn9tRsxlp8KLhkQC2a/country.00012.au?dl=1'
p418
sS'pop.00066.au'
p419
S'https://www.dropbox.com/sh/r7a0ya4679z1w1s/AABAnYOmGEECeAiGnMCBbzEba/pop.00066.au?dl=1'
p420
sS'blues.00085.au'
p421
S'https://www.dropbox.com/sh/afegxsw8f41vfbm/AAAwMe8eMC83hby_yThCTc0Za/blues.00085.au?dl=1'
p422
sS'jazz.00019.au'
p423
S'https://www.dropbox.com/sh/ceji0dmoyie2orq/AADojQ8En2EEmkDYU5X3YJ6Sa/jazz.00019.au?dl=1'
p424
sS'jazz.00066.au'
p425
S'https://www.dropbox.com/sh/ceji0dmoyie2orq/AABaib_mOIsHjVfdLPsQ0HAIa/jazz.00066.au?dl=1'
p426
sS'pop.00010.au'
p427
S'https://www.dropbox.com/sh/r7a0ya4679z1w1s/AAB0P0a4QC7FjIJDewpDC13Ra/pop.00010.au?dl=1'
p428
sS'jazz.00070.au'
p429
S'https://www.dropbox.com/sh/ceji0dmoyie2orq/AACFOW7avfGp2pj1E00HU5ILa/jazz.00070.au?dl=1'
p430
sS'rock.00097.au'
p431
S'https://www.dropbox.com/sh/uotvtqu4g8fcu63/AABHfvEZ6SBOSelWyqlPx692a/rock.00097.au?dl=1'
p432
sS'jazz.00068.au'
p433
S'https://www.dropbox.com/sh/ceji0dmoyie2orq/AABGfShVT2ZCXvTe7w9-Dvvaa/jazz.00068.au?dl=1'
p434
sS'rock.00063.au'
p435
S'https://www.dropbox.com/sh/uotvtqu4g8fcu63/AADY5iicX-QNsbpFHasasn6ya/rock.00063.au?dl=1'
p436
sS'country.00060.au'
p437
S'https://www.dropbox.com/sh/tyz3t14h5r5i49n/AACQubBkQU8iMRkq9d3-r2Caa/country.00060.au?dl=1'
p438
sS'reggae.00074.au'
p439
S'https://www.dropbox.com/sh/6unjnco4qqplysb/AAAwVMq_bF33rPnqJE2cHnLia/reggae.00074.au?dl=1'
p440
sS'reggae.00082.au'
p441
S'https://www.dropbox.com/sh/6unjnco4qqplysb/AAACJmnDcVAu-poIpkuy9Unfa/reggae.00082.au?dl=1'
p442
sS'blues.00096.au'
p443
S'https://www.dropbox.com/sh/afegxsw8f41vfbm/AAB4_j5DmDiUDj5bA10mJheGa/blues.00096.au?dl=1'
p444
sS'blues.00091.au'
p445
S'https://www.dropbox.com/sh/afegxsw8f41vfbm/AACymbRft0qIqpBL9dYY8QBXa/blues.00091.au?dl=1'
p446
sS'rock.00084.au'
p447
S'https://www.dropbox.com/sh/uotvtqu4g8fcu63/AAB-9DdTj72nzvthwilRfmtza/rock.00084.au?dl=1'
p448
sS'metal.00093.au'
p449
S'https://www.dropbox.com/sh/gqhgkkuvg6akab8/AABrTax33MI40auKqazLEz3oa/metal.00093.au?dl=1'
p450
sS'country.00057.au'
p451
S'https://www.dropbox.com/sh/tyz3t14h5r5i49n/AAD4gyIeQZfweojvqYad-sFEa/country.00057.au?dl=1'
p452
sS'hiphop.00016.au'
p453
S'https://www.dropbox.com/sh/rknigscckkp15et/AADa71OpHWpjwvjkYk0dzt3Da/hiphop.00016.au?dl=1'
p454
sS'pop.00073.au'
p455
S'https://www.dropbox.com/sh/r7a0ya4679z1w1s/AAA6TrQywINqfeQ5diyyrZkJa/pop.00073.au?dl=1'
p456
sS'country.00022.au'
p457
S'https://www.dropbox.com/sh/tyz3t14h5r5i49n/AACdxBofddPe5S2_xo97NDVna/country.00022.au?dl=1'
p458
sS'pop.00052.au'
p459
S'https://www.dropbox.com/sh/r7a0ya4679z1w1s/AACZQ7FShgbrD2kBFDA0C0tFa/pop.00052.au?dl=1'
p460
sS'hiphop.00073.au'
p461
S'https://www.dropbox.com/sh/rknigscckkp15et/AABGKUJ6soI1E4PM1qrtjPufa/hiphop.00073.au?dl=1'
p462
sS'country.00088.au'
p463
S'https://www.dropbox.com/sh/tyz3t14h5r5i49n/AAAD-bt_R2pKXPAZwCFTDpmDa/country.00088.au?dl=1'
p464
sS'blues.00055.au'
p465
S'https://www.dropbox.com/sh/afegxsw8f41vfbm/AACF5oTJ6WAG1j408I9il8fna/blues.00055.au?dl=1'
p466
sS'jazz.00014.au'
p467
S'https://www.dropbox.com/sh/rknigscckkp15et/AACoHF992sC7kJHv3hLHn314a/jazz.00014.au?dl=1'
p468
sS'rock.00032.au'
p469
S'https://www.dropbox.com/sh/uotvtqu4g8fcu63/AADFkLg7fBmdvH53y03NhGcUa/rock.00032.au?dl=1'
p470
sS'metal.00010.au'
p471
S'https://www.dropbox.com/sh/gqhgkkuvg6akab8/AABNDNxk_CHEOlKcHpPI_yhWa/metal.00010.au?dl=1'
p472
sS'metal.00045.au'
p473
S'https://www.dropbox.com/sh/gqhgkkuvg6akab8/AADtgYFgRY_lWURBd0ZEZSXwa/metal.00045.au?dl=1'
p474
sS'jazz.00035.au'
p475
S'https://www.dropbox.com/sh/ceji0dmoyie2orq/AADPsM5VvhDF8RdbES1qko3la/jazz.00035.au?dl=1'
p476
sS'reggae.00058.au'
p477
S'https://www.dropbox.com/sh/6unjnco4qqplysb/AADldDIJdlIomAW2jiVy0GGRa/reggae.00058.au?dl=1'
p478
sS'country.00047.au'
p479
S'https://www.dropbox.com/sh/tyz3t14h5r5i49n/AADPJv8Hlk8P8hheJOXlU1IZa/country.00047.au?dl=1'
p480
sS'disco.00056.au'
p481
S'https://www.dropbox.com/sh/raf3ew7bvle3z2p/AABYBlCm3qDYe5SWcLKcgJ2_a/disco.00056.au?dl=1'
p482
sS'blues.00081.au'
p483
S'https://www.dropbox.com/sh/afegxsw8f41vfbm/AABuqLVyB_HmaclTwsFPWtcya/blues.00081.au?dl=1'
p484
sS'blues.00097.au'
p485
S'https://www.dropbox.com/sh/afegxsw8f41vfbm/AABsoSidjyZjhIkvmQ6Ug5Hda/blues.00097.au?dl=1'
p486
sS'rock.00091.au'
p487
S'https://www.dropbox.com/sh/uotvtqu4g8fcu63/AAD0Z_y5Aybgcl0wOLqyIdZoa/rock.00091.au?dl=1'
p488
sS'country.00049.au'
p489
S'https://www.dropbox.com/sh/tyz3t14h5r5i49n/AADZTIYqIvivxfWUsrjlgh8oa/country.00049.au?dl=1'
p490
sS'rock.00028.au'
p491
S'https://www.dropbox.com/sh/uotvtqu4g8fcu63/AACusU6tHxC3v_anTggaug8Ma/rock.00028.au?dl=1'
p492
sS'classical.00031.au'
p493
S'https://www.dropbox.com/sh/1cctr3dfrjccpdy/AADOhZGfoOKx5B8HTmRDsvE7a/classical.00031.au?dl=1'
p494
sS'classical.00033.au'
p495
S'https://www.dropbox.com/sh/1cctr3dfrjccpdy/AACryzxYxG9ApJ8jb7iFccgBa/classical.00033.au?dl=1'
p496
sS'pop.00049.au'
p497
S'https://www.dropbox.com/sh/r7a0ya4679z1w1s/AAAcpRneliPdxgmuIjkGex4ea/pop.00049.au?dl=1'
p498
sS'blues.00032.au'
p499
S'https://www.dropbox.com/sh/afegxsw8f41vfbm/AAB9jwN-8Z-MacANt5IzsBN6a/blues.00032.au?dl=1'
p500
sS'disco.00002.au'
p501
S'https://www.dropbox.com/sh/raf3ew7bvle3z2p/AADNg0PLJkwqzeqJ-TPhF9BRa/disco.00002.au?dl=1'
p502
sS'blues.00098.au'
p503
S'https://www.dropbox.com/sh/afegxsw8f41vfbm/AABJAOExjKHM4YzNu-BbLZSaa/blues.00098.au?dl=1'
p504
sS'blues.00000.au'
p505
S'https://www.dropbox.com/sh/afegxsw8f41vfbm/AACjOq0TDuNihdpPQRfF6fjTa/blues.00000.au?dl=1'
p506
sS'jazz.00069.au'
p507
S'https://www.dropbox.com/sh/ceji0dmoyie2orq/AAAveBFEsdOe2LzBFZsNswP4a/jazz.00069.au?dl=1'
p508
sS'jazz.00078.au'
p509
S'https://www.dropbox.com/sh/ceji0dmoyie2orq/AAAZq2Edeyhzv5SwT_A0o7jYa/jazz.00078.au?dl=1'
p510
sS'hiphop.00014.au'
p511
S'https://www.dropbox.com/sh/rknigscckkp15et/AAACcTii39f2zSuEJ1J5gk58a/hiphop.00014.au?dl=1'
p512
sS'reggae.00090.au'
p513
S'https://www.dropbox.com/sh/6unjnco4qqplysb/AACMlSXcwWpgLc3s0TwcJl2ja/reggae.00090.au?dl=1'
p514
sS'jazz.00042.au'
p515
S'https://www.dropbox.com/sh/ceji0dmoyie2orq/AADUGGdlMJYAc1PZDUYRhaSra/jazz.00042.au?dl=1'
p516
sS'rock.00025.au'
p517
S'https://www.dropbox.com/sh/uotvtqu4g8fcu63/AAB6AXHwTLUtZ4tObP19q-vka/rock.00025.au?dl=1'
p518
sS'disco.00028.au'
p519
S'https://www.dropbox.com/sh/raf3ew7bvle3z2p/AADvPCTAFIG8UT3T76Jdm_vGa/disco.00028.au?dl=1'
p520
sS'disco.00049.au'
p521
S'https://www.dropbox.com/sh/raf3ew7bvle3z2p/AAA-2Di-b3_GwlKuhulWW5LTa/disco.00049.au?dl=1'
p522
sS'jazz.00033.au'
p523
S'https://www.dropbox.com/sh/ceji0dmoyie2orq/AACIvFlBmmgmC4qcNA0aBqZca/jazz.00033.au?dl=1'
p524
sS'pop.00043.au'
p525
S'https://www.dropbox.com/sh/r7a0ya4679z1w1s/AAASBY_RWhSL8f2fWNTrVhi0a/pop.00043.au?dl=1'
p526
sS'country.00069.au'
p527
S'https://www.dropbox.com/sh/tyz3t14h5r5i49n/AAB6bQZabD50M1RtrFuO2d3ka/country.00069.au?dl=1'
p528
sS'disco.00083.au'
p529
S'https://www.dropbox.com/sh/raf3ew7bvle3z2p/AADCw1dVJL4cK0eT1hSzKdmja/disco.00083.au?dl=1'
p530
sS'classical.00008.au'
p531
S'https://www.dropbox.com/sh/1cctr3dfrjccpdy/AAD42IcqLFlec0pdqPsHHMCea/classical.00008.au?dl=1'
p532
sS'classical.00011.au'
p533
S'https://www.dropbox.com/sh/1cctr3dfrjccpdy/AAC5PudVL9o9ywPj0aSu7hUqa/classical.00011.au?dl=1'
p534
sS'blues.00076.au'
p535
S'https://www.dropbox.com/sh/afegxsw8f41vfbm/AAC25dVyrAk9LgQISk-VnoIha/blues.00076.au?dl=1'
p536
sS'disco.00064.au'
p537
S'https://www.dropbox.com/sh/raf3ew7bvle3z2p/AABinGv1n0O-5hmrct04irbUa/disco.00064.au?dl=1'
p538
sS'disco.00066.au'
p539
S'https://www.dropbox.com/sh/raf3ew7bvle3z2p/AAA2yruZek-OBXE1wsAqtdsja/disco.00066.au?dl=1'
p540
sS'disco.00060.au'
p541
S'https://www.dropbox.com/sh/raf3ew7bvle3z2p/AACzTlcOHZ6Kp_t_0rW0Q_PPa/disco.00060.au?dl=1'
p542
sS'disco.00065.au'
p543
S'https://www.dropbox.com/sh/raf3ew7bvle3z2p/AACGOWMdNpj3bcbI02cC2S2xa/disco.00065.au?dl=1'
p544
sS'rock.00031.au'
p545
S'https://www.dropbox.com/sh/uotvtqu4g8fcu63/AABGBEe5_WIUUpJDBfkWPgaDa/rock.00031.au?dl=1'
p546
sS'metal.00029.au'
p547
S'https://www.dropbox.com/sh/gqhgkkuvg6akab8/AACXnZBFIDBS4QYV07bfLQSha/metal.00029.au?dl=1'
p548
sS'classical.00054.au'
p549
S'https://www.dropbox.com/sh/1cctr3dfrjccpdy/AAAhEmZA5_hz5PsRmPCmvf9Fa/classical.00054.au?dl=1'
p550
sS'metal.00076.au'
p551
S'https://www.dropbox.com/sh/gqhgkkuvg6akab8/AAB4Ocmz9fSGggNUSlW09byUa/metal.00076.au?dl=1'
p552
sS'classical.00046.au'
p553
S'https://www.dropbox.com/sh/1cctr3dfrjccpdy/AAB3KiU6Z3Ts1DahJ6fqBYfNa/classical.00046.au?dl=1'
p554
sS'pop.00087.au'
p555
S'https://www.dropbox.com/sh/r7a0ya4679z1w1s/AAC-irqxzVEUrgYut4Y25GC-a/pop.00087.au?dl=1'
p556
sS'metal.00055.au'
p557
S'https://www.dropbox.com/sh/gqhgkkuvg6akab8/AADFQWrHmWDNqk17Tga-W2bua/metal.00055.au?dl=1'
p558
sS'classical.00040.au'
p559
S'https://www.dropbox.com/sh/1cctr3dfrjccpdy/AAA95hTbLJKCcIglc9iXUEiWa/classical.00040.au?dl=1'
p560
sS'pop.00011.au'
p561
S'https://www.dropbox.com/sh/r7a0ya4679z1w1s/AAByQI5GfwQCu815Ks4k2v_ua/pop.00011.au?dl=1'
p562
sS'metal.00053.au'
p563
S'https://www.dropbox.com/sh/gqhgkkuvg6akab8/AABYlucgWl0lqHuDcDiOgGDMa/metal.00053.au?dl=1'
p564
sS'blues.00037.au'
p565
S'https://www.dropbox.com/sh/afegxsw8f41vfbm/AABjsklfLneISblw62EipHkNa/blues.00037.au?dl=1'
p566
sS'reggae.00073.au'
p567
S'https://www.dropbox.com/sh/6unjnco4qqplysb/AACF9WT9iQ-ovA1-RPR6HRQCa/reggae.00073.au?dl=1'
p568
sS'country.00080.au'
p569
S'https://www.dropbox.com/sh/tyz3t14h5r5i49n/AACWYLs36Xoko8ngqohQscWFa/country.00080.au?dl=1'
p570
sS'rock.00027.au'
p571
S'https://www.dropbox.com/sh/uotvtqu4g8fcu63/AAC1HA5oaMhDH5dlSLN9M8F1a/rock.00027.au?dl=1'
p572
sS'metal.00082.au'
p573
S'https://www.dropbox.com/sh/gqhgkkuvg6akab8/AAAY7gdG783ypv3A_aYD6Ssga/metal.00082.au?dl=1'
p574
sS'pop.00045.au'
p575
S'https://www.dropbox.com/sh/r7a0ya4679z1w1s/AABbh15YGgS6V-aMA2SZIodSa/pop.00045.au?dl=1'
p576
sS'blues.00008.au'
p577
S'https://www.dropbox.com/sh/afegxsw8f41vfbm/AADarB1qY-TADvPt_ukoiyb5a/blues.00008.au?dl=1'
p578
sS'reggae.00072.au'
p579
S'https://www.dropbox.com/sh/6unjnco4qqplysb/AABjYMszUdF3YelVw-fdcvIBa/reggae.00072.au?dl=1'
p580
sS'metal.00084.au'
p581
S'https://www.dropbox.com/sh/gqhgkkuvg6akab8/AAD_oud4lXhUCxuydci0y81Ia/metal.00084.au?dl=1'
p582
sS'metal.00049.au'
p583
S'https://www.dropbox.com/sh/gqhgkkuvg6akab8/AACMsa56Sp9tfPdlFQeLSTxNa/metal.00049.au?dl=1'
p584
sS'country.00033.au'
p585
S'https://www.dropbox.com/sh/tyz3t14h5r5i49n/AAAC_qFYl0UuL5B6q9f90AKoa/country.00033.au?dl=1'
p586
sS'metal.00018.au'
p587
S'https://www.dropbox.com/sh/gqhgkkuvg6akab8/AAAVy48ODqJ1j4IZcRBNE0L9a/metal.00018.au?dl=1'
p588
sS'pop.00024.au'
p589
S'https://www.dropbox.com/sh/r7a0ya4679z1w1s/AABkE6yuXIYmhm2aVRk3to6Qa/pop.00024.au?dl=1'
p590
sS'pop.00075.au'
p591
S'https://www.dropbox.com/sh/r7a0ya4679z1w1s/AADQxhraRoZ_tSL9uxci89Zza/pop.00075.au?dl=1'
p592
sS'blues.00074.au'
p593
S'https://www.dropbox.com/sh/afegxsw8f41vfbm/AACL7AGUnkk9WduzVpnmqktVa/blues.00074.au?dl=1'
p594
sS'classical.00044.au'
p595
S'https://www.dropbox.com/sh/1cctr3dfrjccpdy/AADs7JdCDZLSyTzcaMVkH0yZa/classical.00044.au?dl=1'
p596
sS'country.00059.au'
p597
S'https://www.dropbox.com/sh/tyz3t14h5r5i49n/AAApqU63tykIPDsT1WOaC5Rya/country.00059.au?dl=1'
p598
sS'hiphop.00093.au'
p599
S'https://www.dropbox.com/sh/rknigscckkp15et/AAAl2xIL51ssvYsruYInQvUia/hiphop.00093.au?dl=1'
p600
sS'disco.00062.au'
p601
S'https://www.dropbox.com/sh/raf3ew7bvle3z2p/AABWjV9dlWJREt8cf90aPSmra/disco.00062.au?dl=1'
p602
sS'blues.00026.au'
p603
S'https://www.dropbox.com/sh/afegxsw8f41vfbm/AABzB55CpCrazJMNkCbxPGEGa/blues.00026.au?dl=1'
p604
sS'rock.00083.au'
p605
S'https://www.dropbox.com/sh/uotvtqu4g8fcu63/AADssQ2bwguC8nmnr_-S2DBca/rock.00083.au?dl=1'
p606
sS'reggae.00080.au'
p607
S'https://www.dropbox.com/sh/6unjnco4qqplysb/AAC7-ZtAdhb_PgC2IfJ_IUWJa/reggae.00080.au?dl=1'
p608
sS'rock.00002.au'
p609
S'https://www.dropbox.com/sh/uotvtqu4g8fcu63/AACTGK3RGWVyTpQhUcxLLlhTa/rock.00002.au?dl=1'
p610
sS'classical.00027.au'
p611
S'https://www.dropbox.com/sh/1cctr3dfrjccpdy/AACv0PtWyxgkg7QWbTfjCwcVa/classical.00027.au?dl=1'
p612
sS'blues.00006.au'
p613
S'https://www.dropbox.com/sh/afegxsw8f41vfbm/AACC7UC5dbtg-O5OLkMzEtyEa/blues.00006.au?dl=1'
p614
sS'disco.00073.au'
p615
S'https://www.dropbox.com/sh/raf3ew7bvle3z2p/AADjgGuiaf3PbSxl5fSmF4yYa/disco.00073.au?dl=1'
p616
sS'rock.00081.au'
p617
S'https://www.dropbox.com/sh/uotvtqu4g8fcu63/AABD3EacA0Ej65NAwLZt6v-pa/rock.00081.au?dl=1'
p618
sS'blues.00020.au'
p619
S'https://www.dropbox.com/sh/afegxsw8f41vfbm/AAAouaOasKeyucVWk-18mWZxa/blues.00020.au?dl=1'
p620
sS'pop.00083.au'
p621
S'https://www.dropbox.com/sh/r7a0ya4679z1w1s/AACQKCpuQ8ffTmprB1jLa1_Na/pop.00083.au?dl=1'
p622
sS'metal.00051.au'
p623
S'https://www.dropbox.com/sh/gqhgkkuvg6akab8/AABIZjwV5_bSpAThChFVMVwpa/metal.00051.au?dl=1'
p624
sS'disco.00032.au'
p625
S'https://www.dropbox.com/sh/raf3ew7bvle3z2p/AABP5mMIsHcYwZT8N1dyltkwa/disco.00032.au?dl=1'
p626
sS'rock.00074.au'
p627
S'https://www.dropbox.com/sh/uotvtqu4g8fcu63/AABaVwvjCJKhhKtRwdWGk2cZa/rock.00074.au?dl=1'
p628
sS'country.00086.au'
p629
S'https://www.dropbox.com/sh/tyz3t14h5r5i49n/AAB3ipiin6_zCxDv5rIivEkpa/country.00086.au?dl=1'
p630
sS'jazz.00007.au'
p631
S'https://www.dropbox.com/sh/rknigscckkp15et/AACywhXeHy26cGwj1FtgTrAGa/jazz.00007.au?dl=1'
p632
sS'reggae.00003.au'
p633
S'https://www.dropbox.com/sh/6unjnco4qqplysb/AACBVHiFx3aiZduKQcwTY55_a/reggae.00003.au?dl=1'
p634
sS'pop.00091.au'
p635
S'https://www.dropbox.com/sh/r7a0ya4679z1w1s/AABzNsqf1BwG0hZ4peON0Bifa/pop.00091.au?dl=1'
p636
sS'blues.00070.au'
p637
S'https://www.dropbox.com/sh/afegxsw8f41vfbm/AADBTuci5LfjCJrz67cUyC0La/blues.00070.au?dl=1'
p638
sS'disco.00053.au'
p639
S'https://www.dropbox.com/sh/raf3ew7bvle3z2p/AAAfLx-055-IjfpoHufJ9kqva/disco.00053.au?dl=1'
p640
sS'jazz.00010.au'
p641
S'https://www.dropbox.com/sh/rknigscckkp15et/AAAa0JvW_wsgXL_HHuZ4CDwNa/jazz.00010.au?dl=1'
p642
sS'metal.00098.au'
p643
S'https://www.dropbox.com/sh/gqhgkkuvg6akab8/AAB_AHSzd2f0-iBvYVakP_IVa/metal.00098.au?dl=1'
p644
sS'reggae.00014.au'
p645
S'https://www.dropbox.com/sh/6unjnco4qqplysb/AAD41kY462J9USXoFcZclG9Ga/reggae.00014.au?dl=1'
p646
sS'country.00038.au'
p647
S'https://www.dropbox.com/sh/tyz3t14h5r5i49n/AAALg3j3L14_PQQWVxSlv5UNa/country.00038.au?dl=1'
p648
sS'reggae.00054.au'
p649
S'https://www.dropbox.com/sh/6unjnco4qqplysb/AABorkZDl7deUAVnuGU_xuhia/reggae.00054.au?dl=1'
p650
sS'classical.00089.au'
p651
S'https://www.dropbox.com/sh/1cctr3dfrjccpdy/AACQV-utjNULzFluE96WZAJ3a/classical.00089.au?dl=1'
p652
sS'rock.00047.au'
p653
S'https://www.dropbox.com/sh/uotvtqu4g8fcu63/AAC2fYRW7XukiJA2MFoP57AIa/rock.00047.au?dl=1'
p654
sS'reggae.00016.au'
p655
S'https://www.dropbox.com/sh/6unjnco4qqplysb/AAAwg-X7M-YG8z88paa5NlUZa/reggae.00016.au?dl=1'
p656
sS'metal.00081.au'
p657
S'https://www.dropbox.com/sh/gqhgkkuvg6akab8/AADn3FryXUZBJQ30puKvmOafa/metal.00081.au?dl=1'
p658
sS'rock.00045.au'
p659
S'https://www.dropbox.com/sh/uotvtqu4g8fcu63/AAD1Mh11AWHunervGARIQHAVa/rock.00045.au?dl=1'
p660
sS'reggae.00056.au'
p661
S'https://www.dropbox.com/sh/6unjnco4qqplysb/AADtzB9uq28FSk4SrygpervLa/reggae.00056.au?dl=1'
p662
sS'blues.00054.au'
p663
S'https://www.dropbox.com/sh/afegxsw8f41vfbm/AAD1qFsL9q1vIml6pZfIjhPoa/blues.00054.au?dl=1'
p664
sS'jazz.00041.au'
p665
S'https://www.dropbox.com/sh/ceji0dmoyie2orq/AAAaXgWL5zpNrlInAEc0KurZa/jazz.00041.au?dl=1'
p666
sS'pop.00079.au'
p667
S'https://www.dropbox.com/sh/r7a0ya4679z1w1s/AACvCbnrf9oCKFUYUbEHmyL-a/pop.00079.au?dl=1'
p668
sS'jazz.00047.au'
p669
S'https://www.dropbox.com/sh/ceji0dmoyie2orq/AAC_17gpZA1iiCpo57xpCIgma/jazz.00047.au?dl=1'
p670
sS'country.00083.au'
p671
S'https://www.dropbox.com/sh/tyz3t14h5r5i49n/AAAvYZF4_Y-APKKFqz_8oEBXa/country.00083.au?dl=1'
p672
sS'country.00006.au'
p673
S'https://www.dropbox.com/sh/tyz3t14h5r5i49n/AAAc2i39ZGXB9RXIOrrtxsyCa/country.00006.au?dl=1'
p674
sS'disco.00095.au'
p675
S'https://www.dropbox.com/sh/raf3ew7bvle3z2p/AAAJFZP9TXRo6WYpiuHDjK7Qa/disco.00095.au?dl=1'
p676
sS'country.00014.au'
p677
S'https://www.dropbox.com/sh/tyz3t14h5r5i49n/AADpmRLrUMXm9URtMSeSewY_a/country.00014.au?dl=1'
p678
sS'classical.00078.au'
p679
S'https://www.dropbox.com/sh/1cctr3dfrjccpdy/AACQZzUSrQn4NTcraDJzgDWIa/classical.00078.au?dl=1'
p680
sS'pop.00032.au'
p681
S'https://www.dropbox.com/sh/r7a0ya4679z1w1s/AAAVXgCI76xElGzUAYUyvjWwa/pop.00032.au?dl=1'
p682
sS'disco.00013.au'
p683
S'https://www.dropbox.com/sh/raf3ew7bvle3z2p/AAA1KqT_GGZ2A2bPXt6odV1Fa/disco.00013.au?dl=1'
p684
sS'jazz.00045.au'
p685
S'https://www.dropbox.com/sh/ceji0dmoyie2orq/AAD24EwJUarZqI1yT9yhOi3ta/jazz.00045.au?dl=1'
p686
sS'metal.00068.au'
p687
S'https://www.dropbox.com/sh/gqhgkkuvg6akab8/AACnyl41v-Kt46oX6EvGx3jKa/metal.00068.au?dl=1'
p688
sS'disco.00016.au'
p689
S'https://www.dropbox.com/sh/raf3ew7bvle3z2p/AABmgUkZ9cQmhO9CL5RBaL-Ha/disco.00016.au?dl=1'
p690
sS'metal.00090.au'
p691
S'https://www.dropbox.com/sh/gqhgkkuvg6akab8/AAALMEY2Wb58vC0S4wGJFTafa/metal.00090.au?dl=1'
p692
sS'disco.00039.au'
p693
S'https://www.dropbox.com/sh/raf3ew7bvle3z2p/AAD2IShp97aUkaxu1eOaMK1Oa/disco.00039.au?dl=1'
p694
sS'jazz.00039.au'
p695
S'https://www.dropbox.com/sh/ceji0dmoyie2orq/AAAje6sadw8i6YYIPCdXuh6wa/jazz.00039.au?dl=1'
p696
sS'rock.00006.au'
p697
S'https://www.dropbox.com/sh/uotvtqu4g8fcu63/AACLL746R8Uy93orlq3gZdIAa/rock.00006.au?dl=1'
p698
sS'jazz.00005.au'
p699
S'https://www.dropbox.com/sh/rknigscckkp15et/AABzIiHNhzgo3OasGW8gKO33a/jazz.00005.au?dl=1'
p700
sS'jazz.00037.au'
p701
S'https://www.dropbox.com/sh/ceji0dmoyie2orq/AACKCOsZNO63cqPxoc6N2scba/jazz.00037.au?dl=1'
p702
sS'rock.00070.au'
p703
S'https://www.dropbox.com/sh/uotvtqu4g8fcu63/AADfb5-5szU8Y07Z6KvqgsWVa/rock.00070.au?dl=1'
p704
sS'rock.00004.au'
p705
S'https://www.dropbox.com/sh/uotvtqu4g8fcu63/AAB1h4HKaFWcVEyaWNVUGL8qa/rock.00004.au?dl=1'
p706
sS'reggae.00001.au'
p707
S'https://www.dropbox.com/sh/6unjnco4qqplysb/AABB_aMyJQDU-92SYLV6KXCOa/reggae.00001.au?dl=1'
p708
sS'jazz.00034.au'
p709
S'https://www.dropbox.com/sh/ceji0dmoyie2orq/AACRsWU6g5gyodmDUwlVNzuUa/jazz.00034.au?dl=1'
p710
sS'country.00009.au'
p711
S'https://www.dropbox.com/sh/tyz3t14h5r5i49n/AAAc4Km_HT2LIDAVKy7bbZOBa/country.00009.au?dl=1'
p712
sS'disco.00034.au'
p713
S'https://www.dropbox.com/sh/raf3ew7bvle3z2p/AAAkzUNNAVZZxDTMPM1K2SdLa/disco.00034.au?dl=1'
p714
sS'reggae.00051.au'
p715
S'https://www.dropbox.com/sh/6unjnco4qqplysb/AACHwFKtfxqbAomUk4WeExXZa/reggae.00051.au?dl=1'
p716
sS'metal.00020.au'
p717
S'https://www.dropbox.com/sh/gqhgkkuvg6akab8/AADTKbZw6447n4tXv7kut7vda/metal.00020.au?dl=1'
p718
sS'pop.00080.au'
p719
S'https://www.dropbox.com/sh/r7a0ya4679z1w1s/AADFwe_XNHX6dlICE1aovHR6a/pop.00080.au?dl=1'
p720
sS'classical.00013.au'
p721
S'https://www.dropbox.com/sh/1cctr3dfrjccpdy/AACZmbViuWJEeNqxVatK1-ppa/classical.00013.au?dl=1'
p722
sS'rock.00090.au'
p723
S'https://www.dropbox.com/sh/uotvtqu4g8fcu63/AADyT1Q8PejZF4T3ud50Xi94a/rock.00090.au?dl=1'
p724
sS'reggae.00079.au'
p725
S'https://www.dropbox.com/sh/6unjnco4qqplysb/AABA3z-1kcJJmpX0r6u82wP6a/reggae.00079.au?dl=1'
p726
sS'reggae.00018.au'
p727
S'https://www.dropbox.com/sh/6unjnco4qqplysb/AAD92S2nrzJmE21T--FvHLxIa/reggae.00018.au?dl=1'
p728
sS'blues.00051.au'
p729
S'https://www.dropbox.com/sh/afegxsw8f41vfbm/AACDXS26t8QP3ULHDyepZ5sza/blues.00051.au?dl=1'
p730
sS'country.00094.au'
p731
S'https://www.dropbox.com/sh/tyz3t14h5r5i49n/AACQcLdfEydUXbEIq__jcKlZa/country.00094.au?dl=1'
p732
sS'classical.00092.au'
p733
S'https://www.dropbox.com/sh/1cctr3dfrjccpdy/AABDdsV3vuY2jM4Ovt8eKplha/classical.00092.au?dl=1'
p734
sS'metal.00067.au'
p735
S'https://www.dropbox.com/sh/gqhgkkuvg6akab8/AAChLCH57Nt8NYaTZBqdgsl6a/metal.00067.au?dl=1'
p736
sS'rock.00049.au'
p737
S'https://www.dropbox.com/sh/uotvtqu4g8fcu63/AABeLUl6LZmgPNee8s0YW8bZa/rock.00049.au?dl=1'
p738
sS'hiphop.00095.au'
p739
S'https://www.dropbox.com/sh/rknigscckkp15et/AABcbOD0rmAQ_XRIDk4UT-fJa/hiphop.00095.au?dl=1'
p740
sS'classical.00090.au'
p741
S'https://www.dropbox.com/sh/1cctr3dfrjccpdy/AAA4XO7sJpQ75oSAhL7DM1RQa/classical.00090.au?dl=1'
p742
sS'disco.00081.au'
p743
S'https://www.dropbox.com/sh/raf3ew7bvle3z2p/AACaPYesjIegoTib78dChcxqa/disco.00081.au?dl=1'
p744
sS'disco.00008.au'
p745
S'https://www.dropbox.com/sh/raf3ew7bvle3z2p/AACv55Wg-tNc9U82zRA2oA-ka/disco.00008.au?dl=1'
p746
sS'country.00092.au'
p747
S'https://www.dropbox.com/sh/tyz3t14h5r5i49n/AABq_VsAMGEXKX7HsqTVrX42a/country.00092.au?dl=1'
p748
sS'metal.00065.au'
p749
S'https://www.dropbox.com/sh/gqhgkkuvg6akab8/AADKGvQEQQveLhjMzrQ-itJ-a/metal.00065.au?dl=1'
p750
sS'classical.00087.au'
p751
S'https://www.dropbox.com/sh/1cctr3dfrjccpdy/AAAVNphwusf8vQhTIUR51Tjca/classical.00087.au?dl=1'
p752
sS'hiphop.00084.au'
p753
S'https://www.dropbox.com/sh/rknigscckkp15et/AACb__CzBgC_tdAJLBZYY_i7a/hiphop.00084.au?dl=1'
p754
sS'blues.00068.au'
p755
S'https://www.dropbox.com/sh/afegxsw8f41vfbm/AAAcvMtIDC0BPVbEgkEsb2f6a/blues.00068.au?dl=1'
p756
sS'jazz.00073.au'
p757
S'https://www.dropbox.com/sh/ceji0dmoyie2orq/AABFtuokQYYA8yGTOnjAs7kqa/jazz.00073.au?dl=1'
p758
sS'pop.00082.au'
p759
S'https://www.dropbox.com/sh/r7a0ya4679z1w1s/AAAiq_etqSa_i7AR5UlQr72Ha/pop.00082.au?dl=1'
p760
sS'blues.00063.au'
p761
S'https://www.dropbox.com/sh/afegxsw8f41vfbm/AAC16McgN0f5b8SROWlGWhRea/blues.00063.au?dl=1'
p762
sS'pop.00015.au'
p763
S'https://www.dropbox.com/sh/r7a0ya4679z1w1s/AABjYCtTSMgRylrsfeI0vD7Ka/pop.00015.au?dl=1'
p764
sS'metal.00089.au'
p765
S'https://www.dropbox.com/sh/gqhgkkuvg6akab8/AAC2uzwCo3PXjzoJri-nvV-Ha/metal.00089.au?dl=1'
p766
sS'rock.00057.au'
p767
S'https://www.dropbox.com/sh/uotvtqu4g8fcu63/AAAdMQHELlApEv4f5lXOfNBga/rock.00057.au?dl=1'
p768
sS'hiphop.00022.au'
p769
S'https://www.dropbox.com/sh/rknigscckkp15et/AADST1XvnwkKpveb0jaRmz4oa/hiphop.00022.au?dl=1'
p770
sS'classical.00059.au'
p771
S'https://www.dropbox.com/sh/1cctr3dfrjccpdy/AADAEFltUXBUmgKoaswKFH_Ca/classical.00059.au?dl=1'
p772
sS'rock.00060.au'
p773
S'https://www.dropbox.com/sh/uotvtqu4g8fcu63/AAAvesBLOb9fzeASU1p2B3Lsa/rock.00060.au?dl=1'
p774
sS'reggae.00077.au'
p775
S'https://www.dropbox.com/sh/6unjnco4qqplysb/AAC4ESAz_XLBTOLfNnPmZ-1ka/reggae.00077.au?dl=1'
p776
sS'blues.00073.au'
p777
S'https://www.dropbox.com/sh/afegxsw8f41vfbm/AAAKNx_fGzEFhYv3THvlxkhfa/blues.00073.au?dl=1'
p778
sS'hiphop.00020.au'
p779
S'https://www.dropbox.com/sh/rknigscckkp15et/AABTZ0Kv6g06Qry-9ewngPKoa/hiphop.00020.au?dl=1'
p780
sS'country.00004.au'
p781
S'https://www.dropbox.com/sh/tyz3t14h5r5i49n/AABYktSWNKGeSYmEMJnyildKa/country.00004.au?dl=1'
p782
sS'reggae.00036.au'
p783
S'https://www.dropbox.com/sh/6unjnco4qqplysb/AAAKL-pAfEEVvp-Adek9lAGOa/reggae.00036.au?dl=1'
p784
sS'classical.00007.au'
p785
S'https://www.dropbox.com/sh/1cctr3dfrjccpdy/AACZAp4BAqAaYGL4ACF3uIN3a/classical.00007.au?dl=1'
p786
sS'rock.00046.au'
p787
S'https://www.dropbox.com/sh/uotvtqu4g8fcu63/AADpLRvFfscF_P9rdUCgpkDma/rock.00046.au?dl=1'
p788
sS'hiphop.00070.au'
p789
S'https://www.dropbox.com/sh/rknigscckkp15et/AADpjDGDmPP-cR0bQ4eLF0vma/hiphop.00070.au?dl=1'
p790
sS'rock.00069.au'
p791
S'https://www.dropbox.com/sh/uotvtqu4g8fcu63/AAAuwRqQFga2F2e5UtPrKsOba/rock.00069.au?dl=1'
p792
sS'metal.00023.au'
p793
S'https://www.dropbox.com/sh/gqhgkkuvg6akab8/AAAA_XzJGSze-tBARozJsGt1a/metal.00023.au?dl=1'
p794
sS'blues.00083.au'
p795
S'https://www.dropbox.com/sh/afegxsw8f41vfbm/AACbsEM-c-0bEBVhleIryxbsa/blues.00083.au?dl=1'
p796
sS'pop.00018.au'
p797
S'https://www.dropbox.com/sh/r7a0ya4679z1w1s/AAAF47tuiYUWSP8pr3m9QJq8a/pop.00018.au?dl=1'
p798
sS'blues.00030.au'
p799
S'https://www.dropbox.com/sh/afegxsw8f41vfbm/AABUiSKw7del7quSnMGmZF_3a/blues.00030.au?dl=1'
p800
sS'jazz.00090.au'
p801
S'https://www.dropbox.com/sh/ceji0dmoyie2orq/AAAD0jUs4Pq5v6SQUtkakGWSa/jazz.00090.au?dl=1'
p802
sS'disco.00019.au'
p803
S'https://www.dropbox.com/sh/raf3ew7bvle3z2p/AACddPevXfKcybP4f_LzmsHPa/disco.00019.au?dl=1'
p804
sS'disco.00031.au'
p805
S'https://www.dropbox.com/sh/raf3ew7bvle3z2p/AAB7lr4rNnKzRWJ5GGax7cvFa/disco.00031.au?dl=1'
p806
sS'rock.00010.au'
p807
S'https://www.dropbox.com/sh/uotvtqu4g8fcu63/AAAJl1jTPtsb9MDjxZ12fF4ba/rock.00010.au?dl=1'
p808
sS'rock.00099.au'
p809
S'https://www.dropbox.com/sh/uotvtqu4g8fcu63/AACth6JhzbpeWIiU0N_pdBcua/rock.00099.au?dl=1'
p810
sS'hiphop.00085.au'
p811
S'https://www.dropbox.com/sh/rknigscckkp15et/AAAA35ubpeLynM_FT1ZLH0Fra/hiphop.00085.au?dl=1'
p812
sS'jazz.00030.au'
p813
S'https://www.dropbox.com/sh/ceji0dmoyie2orq/AAANcyuSaT26QmxreNiYv1vya/jazz.00030.au?dl=1'
p814
sS'jazz.00013.au'
p815
S'https://www.dropbox.com/sh/rknigscckkp15et/AACPrP1ZTQX_EsaW7q3NIflAa/jazz.00013.au?dl=1'
p816
sS'disco.00026.au'
p817
S'https://www.dropbox.com/sh/raf3ew7bvle3z2p/AAA41C5MdW_wMnsdmFoCUjeja/disco.00026.au?dl=1'
p818
sS'disco.00006.au'
p819
S'https://www.dropbox.com/sh/raf3ew7bvle3z2p/AAAuN6NF6mGzpGdRW2H-AmOra/disco.00006.au?dl=1'
p820
sS'country.00061.au'
p821
S'https://www.dropbox.com/sh/tyz3t14h5r5i49n/AAAFQ25lL2_asW4BjR1Ed5Wya/country.00061.au?dl=1'
p822
sS'hiphop.00039.au'
p823
S'https://www.dropbox.com/sh/rknigscckkp15et/AAD_2DXPkBhvUQM7smt0OPtDa/hiphop.00039.au?dl=1'
p824
sS'rock.00077.au'
p825
S'https://www.dropbox.com/sh/uotvtqu4g8fcu63/AADoo0eZeMBp2R4unyXFfZN7a/rock.00077.au?dl=1'
p826
sS'pop.00013.au'
p827
S'https://www.dropbox.com/sh/r7a0ya4679z1w1s/AAD1wauDtCVttlNSD6EavQ1ha/pop.00013.au?dl=1'
p828
sS'metal.00074.au'
p829
S'https://www.dropbox.com/sh/gqhgkkuvg6akab8/AAA-_RHVcRcXY0AMFEv-5ZWVa/metal.00074.au?dl=1'
p830
sS'classical.00017.au'
p831
S'https://www.dropbox.com/sh/1cctr3dfrjccpdy/AACuXRrXSWG1-z-Z-Htgdbwga/classical.00017.au?dl=1'
p832
sS'jazz.00071.au'
p833
S'https://www.dropbox.com/sh/ceji0dmoyie2orq/AACHTRZCiC4zGno6WY4SNHmna/jazz.00071.au?dl=1'
p834
sS'blues.00082.au'
p835
S'https://www.dropbox.com/sh/afegxsw8f41vfbm/AAD451a2Syxw2cZYI8KWH1Dea/blues.00082.au?dl=1'
p836
sS'reggae.00075.au'
p837
S'https://www.dropbox.com/sh/6unjnco4qqplysb/AABHno-PrTJq3ilD3ZTeOyBga/reggae.00075.au?dl=1'
p838
sS'rock.00062.au'
p839
S'https://www.dropbox.com/sh/uotvtqu4g8fcu63/AAB1bHKmIZ5lZe5DxXYB-Lv6a/rock.00062.au?dl=1'
p840
sS'classical.00015.au'
p841
S'https://www.dropbox.com/sh/1cctr3dfrjccpdy/AADtJ5pkIzCKa4IEmiPcOXWXa/classical.00015.au?dl=1'
p842
sS'jazz.00077.au'
p843
S'https://www.dropbox.com/sh/ceji0dmoyie2orq/AABUke5NuA3eM_Z9xfap09p4a/jazz.00077.au?dl=1'
p844
sS'pop.00063.au'
p845
S'https://www.dropbox.com/sh/r7a0ya4679z1w1s/AACjAfdpzaEKgnldF1vvkAtEa/pop.00063.au?dl=1'
p846
sS'blues.00014.au'
p847
S'https://www.dropbox.com/sh/afegxsw8f41vfbm/AADadJ3UqfbKiGFw1G7P4yX4a/blues.00014.au?dl=1'
p848
sS'reggae.00034.au'
p849
S'https://www.dropbox.com/sh/6unjnco4qqplysb/AADQUP38RD507pGdg40eTk7wa/reggae.00034.au?dl=1'
p850
sS'blues.00065.au'
p851
S'https://www.dropbox.com/sh/afegxsw8f41vfbm/AADugou6ucsSnssbBgn44bUUa/blues.00065.au?dl=1'
p852
sS'reggae.00089.au'
p853
S'https://www.dropbox.com/sh/6unjnco4qqplysb/AABLRExInOouRqb-20-gWxGta/reggae.00089.au?dl=1'
p854
sS'pop.00094.au'
p855
S'https://www.dropbox.com/sh/r7a0ya4679z1w1s/AACIbgJ6RtLv1KYmvGxCYTh0a/pop.00094.au?dl=1'
p856
sS'disco.00010.au'
p857
S'https://www.dropbox.com/sh/raf3ew7bvle3z2p/AACVBTM48zp1zVw9zG6XHbzha/disco.00010.au?dl=1'
p858
sS'disco.00087.au'
p859
S'https://www.dropbox.com/sh/raf3ew7bvle3z2p/AACwcGM6TG75OVwdWmj1ThYia/disco.00087.au?dl=1'
p860
sS'hiphop.00072.au'
p861
S'https://www.dropbox.com/sh/rknigscckkp15et/AABkFFDWN-UKQzpZ4l4RO7Gta/hiphop.00072.au?dl=1'
p862
sS'pop.00084.au'
p863
S'https://www.dropbox.com/sh/r7a0ya4679z1w1s/AAAxxr1gKUYmMqUn8-hwwKRCa/pop.00084.au?dl=1'
p864
sS'disco.00054.au'
p865
S'https://www.dropbox.com/sh/raf3ew7bvle3z2p/AAB3IhjNNgnzOU0-CVdW128Ca/disco.00054.au?dl=1'
p866
sS'disco.00042.au'
p867
S'https://www.dropbox.com/sh/raf3ew7bvle3z2p/AACM2oNvxeRGUuTLUX5EoOm1a/disco.00042.au?dl=1'
p868
sS'hiphop.00038.au'
p869
S'https://www.dropbox.com/sh/rknigscckkp15et/AADu5rS_1y206fjiBpGj_k3Ka/hiphop.00038.au?dl=1'
p870
sS'jazz.00052.au'
p871
S'https://www.dropbox.com/sh/ceji0dmoyie2orq/AACAvkD11l0iacHhUh4qSnlMa/jazz.00052.au?dl=1'
p872
sS'rock.00009.au'
p873
S'https://www.dropbox.com/sh/uotvtqu4g8fcu63/AADPc1ds-Ja9ic-7kMl9NgK4a/rock.00009.au?dl=1'
p874
sS'blues.00089.au'
p875
S'https://www.dropbox.com/sh/afegxsw8f41vfbm/AAB0f_Ec6F4XkFrHZ1zOXCgRa/blues.00089.au?dl=1'
p876
sS'jazz.00015.au'
p877
S'https://www.dropbox.com/sh/ceji0dmoyie2orq/AACJmKCSK4p3U9C0OxPDobdZa/jazz.00015.au?dl=1'
p878
sS'country.00018.au'
p879
S'https://www.dropbox.com/sh/tyz3t14h5r5i49n/AADa1ZX3cq5BJUY5mYf6T3Kma/country.00018.au?dl=1'
p880
sS'classical.00079.au'
p881
S'https://www.dropbox.com/sh/1cctr3dfrjccpdy/AAC53BMToOVnlA-G_LrQvJX6a/classical.00079.au?dl=1'
p882
sS'hiphop.00066.au'
p883
S'https://www.dropbox.com/sh/rknigscckkp15et/AAAynHZYHLgpNRkttHRJpgNRa/hiphop.00066.au?dl=1'
p884
sS'blues.00003.au'
p885
S'https://www.dropbox.com/sh/afegxsw8f41vfbm/AACjqT6rUjm7Y4Z82M3Ihi4ga/blues.00003.au?dl=1'
p886
sS'pop.00069.au'
p887
S'https://www.dropbox.com/sh/r7a0ya4679z1w1s/AABjo-mGCUFF0JICXX3_8P2Ka/pop.00069.au?dl=1'
p888
sS'country.00003.au'
p889
S'https://www.dropbox.com/sh/tyz3t14h5r5i49n/AADityy2XIqiO0mnxg8sMvLPa/country.00003.au?dl=1'
p890
sS'blues.00041.au'
p891
S'https://www.dropbox.com/sh/afegxsw8f41vfbm/AACU_t3hu8YAnjZ-toT4exRza/blues.00041.au?dl=1'
p892
sS'reggae.00053.au'
p893
S'https://www.dropbox.com/sh/6unjnco4qqplysb/AADihft22BmshPdLT2Afvk6Aa/reggae.00053.au?dl=1'
p894
sS'rock.00040.au'
p895
S'https://www.dropbox.com/sh/uotvtqu4g8fcu63/AABoain7K2GQYHIevzxuU2a_a/rock.00040.au?dl=1'
p896
sS'country.00056.au'
p897
S'https://www.dropbox.com/sh/tyz3t14h5r5i49n/AACwxksJyEKQQC3UV6KLY9WRa/country.00056.au?dl=1'
p898
sS'blues.00087.au'
p899
S'https://www.dropbox.com/sh/afegxsw8f41vfbm/AAAVn3ukTXZT1zPoFZexfw1Da/blues.00087.au?dl=1'
p900
sS'country.00023.au'
p901
S'https://www.dropbox.com/sh/tyz3t14h5r5i49n/AAAKtKTvF-zvLRS_XwZlh1d0a/country.00023.au?dl=1'
p902
sS'disco.00091.au'
p903
S'https://www.dropbox.com/sh/raf3ew7bvle3z2p/AAAqspO_ozDu8PjjTerR5K8ma/disco.00091.au?dl=1'
p904
sS'country.00035.au'
p905
S'https://www.dropbox.com/sh/tyz3t14h5r5i49n/AABnX1XF9iGbiyBWMPs9bVwla/country.00035.au?dl=1'
p906
sS'classical.00005.au'
p907
S'https://www.dropbox.com/sh/1cctr3dfrjccpdy/AAAPTRTsj83AhwOHGY7-D1Uoa/classical.00005.au?dl=1'
p908
sS'country.00089.au'
p909
S'https://www.dropbox.com/sh/tyz3t14h5r5i49n/AACMJhukXl7KIO7Re1Ko6-Zxa/country.00089.au?dl=1'
p910
sS'blues.00090.au'
p911
S'https://www.dropbox.com/sh/afegxsw8f41vfbm/AACGFIe_dPlJlIPycz6Ee0LBa/blues.00090.au?dl=1'
p912
sS'classical.00075.au'
p913
S'https://www.dropbox.com/sh/1cctr3dfrjccpdy/AAAycofgWdqJ1dwfbbD-wGlfa/classical.00075.au?dl=1'
p914
sS'hiphop.00029.au'
p915
S'https://www.dropbox.com/sh/rknigscckkp15et/AADN2vTcdc0zxwaoxeYK_lLza/hiphop.00029.au?dl=1'
p916
sS'pop.00022.au'
p917
S'https://www.dropbox.com/sh/r7a0ya4679z1w1s/AACWODDxJS-BCfeAs-kcnuQZa/pop.00022.au?dl=1'
p918
sS'hiphop.00027.au'
p919
S'https://www.dropbox.com/sh/rknigscckkp15et/AACZY4xm16CQ3qR_cgfKWRdwa/hiphop.00027.au?dl=1'
p920
sS'jazz.00076.au'
p921
S'https://www.dropbox.com/sh/ceji0dmoyie2orq/AAAao-7UpS9aPR3eAG_0789ka/jazz.00076.au?dl=1'
p922
sS'classical.00021.au'
p923
S'https://www.dropbox.com/sh/1cctr3dfrjccpdy/AABR1C01Aoilywn-LFCB0Vrya/classical.00021.au?dl=1'
p924
sS'metal.00073.au'
p925
S'https://www.dropbox.com/sh/gqhgkkuvg6akab8/AAA_9X9pMX5lgqdjpuzvQ9wIa/metal.00073.au?dl=1'
p926
sS'jazz.00074.au'
p927
S'https://www.dropbox.com/sh/ceji0dmoyie2orq/AAArqltpxgv4PkRYTK4J9JqFa/jazz.00074.au?dl=1'
p928
sS'metal.00088.au'
p929
S'https://www.dropbox.com/sh/gqhgkkuvg6akab8/AAD81vPES-x0JBYkhphc2fRLa/metal.00088.au?dl=1'
p930
sS'country.00084.au'
p931
S'https://www.dropbox.com/sh/tyz3t14h5r5i49n/AACnDajgQ6eGUicZhKJt49ooa/country.00084.au?dl=1'
p932
sS'metal.00075.au'
p933
S'https://www.dropbox.com/sh/gqhgkkuvg6akab8/AACgdqigrbigoXP4Sn6GOJtoa/metal.00075.au?dl=1'
p934
sS'pop.00039.au'
p935
S'https://www.dropbox.com/sh/r7a0ya4679z1w1s/AAB2cs4UvTJ0oEyHgA2xDYsra/pop.00039.au?dl=1'
p936
sS'country.00001.au'
p937
S'https://www.dropbox.com/sh/tyz3t14h5r5i49n/AAC2GjIqIRPkjY4wQYKODNJ3a/country.00001.au?dl=1'
p938
sS'pop.00071.au'
p939
S'https://www.dropbox.com/sh/r7a0ya4679z1w1s/AACRGV53QezQgnkUY7L-Dqzra/pop.00071.au?dl=1'
p940
sS'blues.00002.au'
p941
S'https://www.dropbox.com/sh/afegxsw8f41vfbm/AAB3U7VRXhmhmo0hFyekcRDfa/blues.00002.au?dl=1'
p942
sS'metal.00071.au'
p943
S'https://www.dropbox.com/sh/gqhgkkuvg6akab8/AAB_7Pbbq74I2T_ahmaWU1lQa/metal.00071.au?dl=1'
p944
sS'classical.00028.au'
p945
S'https://www.dropbox.com/sh/1cctr3dfrjccpdy/AAAwDYphuSYa_2y8cRpru_BSa/classical.00028.au?dl=1'
p946
sS'classical.00094.au'
p947
S'https://www.dropbox.com/sh/1cctr3dfrjccpdy/AAAhsKDt75WxS4ESQFyJ-rTka/classical.00094.au?dl=1'
p948
sS'rock.00008.au'
p949
S'https://www.dropbox.com/sh/uotvtqu4g8fcu63/AABQqyVmOeqAyjH37DF_ou-ba/rock.00008.au?dl=1'
p950
sS'disco.00040.au'
p951
S'https://www.dropbox.com/sh/raf3ew7bvle3z2p/AACKijtxYLrJDahTnyatHEesa/disco.00040.au?dl=1'
p952
sS'jazz.00025.au'
p953
S'https://www.dropbox.com/sh/ceji0dmoyie2orq/AAB0IXzm9DKca1rjP5vStLSNa/jazz.00025.au?dl=1'
p954
sS'reggae.00021.au'
p955
S'https://www.dropbox.com/sh/6unjnco4qqplysb/AACMFrUcva8xxgu4Vhtkss-ha/reggae.00021.au?dl=1'
p956
sS'disco.00014.au'
p957
S'https://www.dropbox.com/sh/raf3ew7bvle3z2p/AADz7_0ubRY9eWMhIlH5DLWEa/disco.00014.au?dl=1'
p958
sS'reggae.00069.au'
p959
S'https://www.dropbox.com/sh/6unjnco4qqplysb/AADxECLCK1cl-QcwVH4baUoha/reggae.00069.au?dl=1'
p960
sS'metal.00017.au'
p961
S'https://www.dropbox.com/sh/gqhgkkuvg6akab8/AADnDqRI0dHe3gzBfSy-YKbna/metal.00017.au?dl=1'
p962
sS'blues.00047.au'
p963
S'https://www.dropbox.com/sh/afegxsw8f41vfbm/AADlUh_sNrhllhvRCj20Ye4Ma/blues.00047.au?dl=1'
p964
sS'classical.00085.au'
p965
S'https://www.dropbox.com/sh/1cctr3dfrjccpdy/AAAEcXzzX_DZtptFCZihqk-Qa/classical.00085.au?dl=1'
p966
sS'blues.00069.au'
p967
S'https://www.dropbox.com/sh/afegxsw8f41vfbm/AAB9j93AXEu6ewCEX6sX8lwda/blues.00069.au?dl=1'
p968
sS'classical.00074.au'
p969
S'https://www.dropbox.com/sh/1cctr3dfrjccpdy/AABQ8k-LB6FzAX8B3wv7htkNa/classical.00074.au?dl=1'
p970
sS'metal.00063.au'
p971
S'https://www.dropbox.com/sh/gqhgkkuvg6akab8/AAAlmNclH0JtyOdXPgu41O6la/metal.00063.au?dl=1'
p972
sS'blues.00045.au'
p973
S'https://www.dropbox.com/sh/afegxsw8f41vfbm/AACRYTf5vPKHOHFhKr6xTH7oa/blues.00045.au?dl=1'
p974
sS'jazz.00056.au'
p975
S'https://www.dropbox.com/sh/ceji0dmoyie2orq/AADCwJFfxUOTjL3YMZpbh9mia/jazz.00056.au?dl=1'
p976
sS'country.00051.au'
p977
S'https://www.dropbox.com/sh/tyz3t14h5r5i49n/AADSsjye76ulQbONJXMH_W_Qa/country.00051.au?dl=1'
p978
sS'pop.00042.au'
p979
S'https://www.dropbox.com/sh/r7a0ya4679z1w1s/AADk479ifxBcwNo7G3EdKzGFa/pop.00042.au?dl=1'
p980
sS'disco.00093.au'
p981
S'https://www.dropbox.com/sh/raf3ew7bvle3z2p/AAAlrfMT98trkl15wqinKYYua/disco.00093.au?dl=1'
p982
sS'jazz.00050.au'
p983
S'https://www.dropbox.com/sh/ceji0dmoyie2orq/AADKPFDbJrJ2e34EurNKLRhba/jazz.00050.au?dl=1'
p984
sS'country.00073.au'
p985
S'https://www.dropbox.com/sh/tyz3t14h5r5i49n/AACeFAx-p2Lg_MwyrMyNPIs9a/country.00073.au?dl=1'
p986
sS'classical.00055.au'
p987
S'https://www.dropbox.com/sh/1cctr3dfrjccpdy/AAD4hnPNPcVx0hbxg_b9e9F8a/classical.00055.au?dl=1'
p988
sS'disco.00088.au'
p989
S'https://www.dropbox.com/sh/raf3ew7bvle3z2p/AAAO0HA8gwU0h8PksbICxgI7a/disco.00088.au?dl=1'
p990
sS'disco.00067.au'
p991
S'https://www.dropbox.com/sh/raf3ew7bvle3z2p/AAAwkECorLnjPZS4nyLsBdj-a/disco.00067.au?dl=1'
p992
sS'country.00007.au'
p993
S'https://www.dropbox.com/sh/tyz3t14h5r5i49n/AAAwBEKy1amHcQj_PDUCUCAca/country.00007.au?dl=1'
p994
sS'metal.00028.au'
p995
S'https://www.dropbox.com/sh/gqhgkkuvg6akab8/AADGii_0npia4H2grUpZiTGga/metal.00028.au?dl=1'
p996
sS'disco.00061.au'
p997
S'https://www.dropbox.com/sh/raf3ew7bvle3z2p/AADTibuHofRE3HNSqDSVTFq6a/disco.00061.au?dl=1'
p998
sS'metal.00077.au'
p999
S'https://www.dropbox.com/sh/gqhgkkuvg6akab8/AAC_jJLPLu6N6E1luzW37Oufa/metal.00077.au?dl=1'
p1000
sS'rock.00052.au'
p1001
S'https://www.dropbox.com/sh/uotvtqu4g8fcu63/AACf4IBallx4iQJTCo04u05Ka/rock.00052.au?dl=1'
p1002
sS'reggae.00020.au'
p1003
S'https://www.dropbox.com/sh/6unjnco4qqplysb/AAARVqLMEbaYKwhXFjLqPh6Ia/reggae.00020.au?dl=1'
p1004
sS'jazz.00061.au'
p1005
S'https://www.dropbox.com/sh/ceji0dmoyie2orq/AACfK-vv_5D9JlqEB2lZfEcqa/jazz.00061.au?dl=1'
p1006
sS'reggae.00065.au'
p1007
S'https://www.dropbox.com/sh/6unjnco4qqplysb/AACyRLGxItZJDCGPsdfsW3_za/reggae.00065.au?dl=1'
p1008
sS'disco.00050.au'
p1009
S'https://www.dropbox.com/sh/raf3ew7bvle3z2p/AACYqgpE7QQtVI_rYDd13zgea/disco.00050.au?dl=1'
p1010
sS'rock.00014.au'
p1011
S'https://www.dropbox.com/sh/uotvtqu4g8fcu63/AADAZ-IQ5n2WMIvcC_7FxwWha/rock.00014.au?dl=1'
p1012
sS'metal.00038.au'
p1013
S'https://www.dropbox.com/sh/gqhgkkuvg6akab8/AAAPqYIsW50KO-j7EkFfw7UOa/metal.00038.au?dl=1'
p1014
sS'jazz.00085.au'
p1015
S'https://www.dropbox.com/sh/ceji0dmoyie2orq/AABP6oV74ZD5rfzcbe_yR2HJa/jazz.00085.au?dl=1'
p1016
sS'rock.00021.au'
p1017
S'https://www.dropbox.com/sh/uotvtqu4g8fcu63/AADB400Q7gu-V188sqsr9x8na/rock.00021.au?dl=1'
p1018
sS'hiphop.00021.au'
p1019
S'https://www.dropbox.com/sh/rknigscckkp15et/AAC3iXSNkAwB-5lrWucquvF_a/hiphop.00021.au?dl=1'
p1020
sS'rock.00023.au'
p1021
S'https://www.dropbox.com/sh/uotvtqu4g8fcu63/AABy8efSUjIpZll_3-VWn7-ua/rock.00023.au?dl=1'
p1022
sS'hiphop.00041.au'
p1023
S'https://www.dropbox.com/sh/rknigscckkp15et/AAD4Zq-6Os2HchiCn7IO0rupa/hiphop.00041.au?dl=1'
p1024
sS'jazz.00094.au'
p1025
S'https://www.dropbox.com/sh/ceji0dmoyie2orq/AAAWfgnfaYQZcUxuSIrClRMTa/jazz.00094.au?dl=1'
p1026
sS'jazz.00028.au'
p1027
S'https://www.dropbox.com/sh/ceji0dmoyie2orq/AAA0s8z-RgX-9vP04WRM8pdEa/jazz.00028.au?dl=1'
p1028
sS'hiphop.00008.au'
p1029
S'https://www.dropbox.com/sh/rknigscckkp15et/AADG4cVjeBuWGmVxCVNJo2W2a/hiphop.00008.au?dl=1'
p1030
sS'reggae.00031.au'
p1031
S'https://www.dropbox.com/sh/6unjnco4qqplysb/AAAarEoEXi1EJXPJDn1aL7x4a/reggae.00031.au?dl=1'
p1032
sS'rock.00043.au'
p1033
S'https://www.dropbox.com/sh/uotvtqu4g8fcu63/AACskpJ31sBD5ON2SUx3Idfga/rock.00043.au?dl=1'
p1034
sS'pop.00041.au'
p1035
S'https://www.dropbox.com/sh/r7a0ya4679z1w1s/AAC9GkrNpbpyYS3xPswnflpIa/pop.00041.au?dl=1'
p1036
sS'country.00096.au'
p1037
S'https://www.dropbox.com/sh/tyz3t14h5r5i49n/AADD8bZGabsG3-whPNXNvEb7a/country.00096.au?dl=1'
p1038
sS'metal.00024.au'
p1039
S'https://www.dropbox.com/sh/gqhgkkuvg6akab8/AAA8Em5ML_Lyikk7iqCbl-fia/metal.00024.au?dl=1'
p1040
sS'rock.00068.au'
p1041
S'https://www.dropbox.com/sh/uotvtqu4g8fcu63/AABW52tNI8-2Z-6baLUPoytra/rock.00068.au?dl=1'
p1042
sS'blues.00053.au'
p1043
S'https://www.dropbox.com/sh/afegxsw8f41vfbm/AACWzefxIqoC1sVS5QKWiBsVa/blues.00053.au?dl=1'
p1044
sS'disco.00023.au'
p1045
S'https://www.dropbox.com/sh/raf3ew7bvle3z2p/AACMJGQG5sYoGK_6etAV0TT0a/disco.00023.au?dl=1'
p1046
sS'country.00031.au'
p1047
S'https://www.dropbox.com/sh/tyz3t14h5r5i49n/AADRZ02PS_86aN28VYUBGVf6a/country.00031.au?dl=1'
p1048
sS'disco.00033.au'
p1049
S'https://www.dropbox.com/sh/raf3ew7bvle3z2p/AABEni5jjnI6W8NkSQL95z4ea/disco.00033.au?dl=1'
p1050
sS'classical.00029.au'
p1051
S'https://www.dropbox.com/sh/1cctr3dfrjccpdy/AABesHEETZqaLsK79D3p3HRha/classical.00029.au?dl=1'
p1052
sS'disco.00079.au'
p1053
S'https://www.dropbox.com/sh/raf3ew7bvle3z2p/AAD1K4LCOs_hLQRLbCNu5Skqa/disco.00079.au?dl=1'
p1054
sS'jazz.00055.au'
p1055
S'https://www.dropbox.com/sh/ceji0dmoyie2orq/AAAvU6W6Heemx91_FzlJoz_Qa/jazz.00055.au?dl=1'
p1056
sS'metal.00011.au'
p1057
S'https://www.dropbox.com/sh/gqhgkkuvg6akab8/AADKyHlgku6LPTuWAYgRhf9Za/metal.00011.au?dl=1'
p1058
sS'jazz.00006.au'
p1059
S'https://www.dropbox.com/sh/rknigscckkp15et/AADpr6ia157Rmgz1tpIroosAa/jazz.00006.au?dl=1'
p1060
sS'blues.00059.au'
p1061
S'https://www.dropbox.com/sh/afegxsw8f41vfbm/AACctp1Pgk8j6xXdaejMYakMa/blues.00059.au?dl=1'
p1062
sS'jazz.00063.au'
p1063
S'https://www.dropbox.com/sh/ceji0dmoyie2orq/AACxUp8BVVPnx_pdqx4Utarda/jazz.00063.au?dl=1'
p1064
sS'rock.00080.au'
p1065
S'https://www.dropbox.com/sh/uotvtqu4g8fcu63/AACQnhT1OViubWAA4znQHVhFa/rock.00080.au?dl=1'
p1066
sS'rock.00078.au'
p1067
S'https://www.dropbox.com/sh/uotvtqu4g8fcu63/AADS_1UckG0Q5RSQXCtACHxVa/rock.00078.au?dl=1'
p1068
sS'jazz.00011.au'
p1069
S'https://www.dropbox.com/sh/rknigscckkp15et/AACc6Yaz0i_RzkaDDW8yXTbQa/jazz.00011.au?dl=1'
p1070
sS'rock.00056.au'
p1071
S'https://www.dropbox.com/sh/uotvtqu4g8fcu63/AADQnlqu8CQImAIQnTRbErZAa/rock.00056.au?dl=1'
p1072
sS'reggae.00067.au'
p1073
S'https://www.dropbox.com/sh/6unjnco4qqplysb/AAD7nywl8DPyzEuYGsX39Br4a/reggae.00067.au?dl=1'
p1074
sS'reggae.00004.au'
p1075
S'https://www.dropbox.com/sh/6unjnco4qqplysb/AAAIpj6GLausSmFeMd2avbuja/reggae.00004.au?dl=1'
p1076
sS'rock.00075.au'
p1077
S'https://www.dropbox.com/sh/uotvtqu4g8fcu63/AABQ2gXHVqjKr-2BhYJHDOVga/rock.00075.au?dl=1'
p1078
sS'pop.00065.au'
p1079
S'https://www.dropbox.com/sh/r7a0ya4679z1w1s/AAARbpy4EGNzwcWfDfq_aCida/pop.00065.au?dl=1'
p1080
sS'reggae.00055.au'
p1081
S'https://www.dropbox.com/sh/6unjnco4qqplysb/AADv9XvsRku5c8G6r__fXvCMa/reggae.00055.au?dl=1'
p1082
sS'jazz.00083.au'
p1083
S'https://www.dropbox.com/sh/ceji0dmoyie2orq/AACG5_DATFnOkuX6L8c-wFjDa/jazz.00083.au?dl=1'
p1084
sS'rock.00073.au'
p1085
S'https://www.dropbox.com/sh/uotvtqu4g8fcu63/AADrFZjyaDhZKpIpEnxfCA2ga/rock.00073.au?dl=1'
p1086
sS'disco.00052.au'
p1087
S'https://www.dropbox.com/sh/raf3ew7bvle3z2p/AACEt7ZjJBDM7k_-U1o15qEoa/disco.00052.au?dl=1'
p1088
sS'reggae.00002.au'
p1089
S'https://www.dropbox.com/sh/6unjnco4qqplysb/AACIv6lW_uQcnLM0gd5Y4z-1a/reggae.00002.au?dl=1'
p1090
sS'hiphop.00043.au'
p1091
S'https://www.dropbox.com/sh/rknigscckkp15et/AACF42mwHsLzizMQrIKKzovha/hiphop.00043.au?dl=1'
p1092
sS'jazz.00081.au'
p1093
S'https://www.dropbox.com/sh/ceji0dmoyie2orq/AABfkM0f98LccHmyepXKENqHa/jazz.00081.au?dl=1'
p1094
sS'metal.00080.au'
p1095
S'https://www.dropbox.com/sh/gqhgkkuvg6akab8/AAB4KEcPWbAyjRDm4hLlj9Cta/metal.00080.au?dl=1'
p1096
sS'country.00071.au'
p1097
S'https://www.dropbox.com/sh/tyz3t14h5r5i49n/AACeaTahDasoeTmuc9k_wFuLa/country.00071.au?dl=1'
p1098
sS'rock.00016.au'
p1099
S'https://www.dropbox.com/sh/uotvtqu4g8fcu63/AADcLUv1GBoB8PkW9D1OITSqa/rock.00016.au?dl=1'
p1100
sS'reggae.00092.au'
p1101
S'https://www.dropbox.com/sh/6unjnco4qqplysb/AAAg9n7ZJR1vuBqMKtsNCQZba/reggae.00092.au?dl=1'
p1102
sS'classical.00018.au'
p1103
S'https://www.dropbox.com/sh/1cctr3dfrjccpdy/AABGPJBRpmaTAqbQl6oCwa-ba/classical.00018.au?dl=1'
p1104
sS'reggae.00094.au'
p1105
S'https://www.dropbox.com/sh/6unjnco4qqplysb/AACZeFgPUoPEFsxj9v1dqgU6a/reggae.00094.au?dl=1'
p1106
sS'pop.00064.au'
p1107
S'https://www.dropbox.com/sh/r7a0ya4679z1w1s/AAAAdOdbFA212ZnXE-p3LTwha/pop.00064.au?dl=1'
p1108
sS'reggae.00057.au'
p1109
S'https://www.dropbox.com/sh/6unjnco4qqplysb/AAAA8_1zJS4py2Qb1cDHQNT0a/reggae.00057.au?dl=1'
p1110
sS'rock.00044.au'
p1111
S'https://www.dropbox.com/sh/uotvtqu4g8fcu63/AADNjNWN7gv2el4DzU6hO1AZa/rock.00044.au?dl=1'
p1112
sS'pop.00026.au'
p1113
S'https://www.dropbox.com/sh/r7a0ya4679z1w1s/AAAC2tYm-OIo8O3uvvdhIwCva/pop.00026.au?dl=1'
p1114
sS'hiphop.00078.au'
p1115
S'https://www.dropbox.com/sh/rknigscckkp15et/AABN0R0I2gYJbhQgD6unabAFa/hiphop.00078.au?dl=1'
p1116
sS'metal.00001.au'
p1117
S'https://www.dropbox.com/sh/gqhgkkuvg6akab8/AABj8tXpUs3KUcxPU3oF26fwa/metal.00001.au?dl=1'
p1118
sS'blues.00061.au'
p1119
S'https://www.dropbox.com/sh/afegxsw8f41vfbm/AABYGG7L7fjXHPahaG8_O1zKa/blues.00061.au?dl=1'
p1120
sS'jazz.00040.au'
p1121
S'https://www.dropbox.com/sh/ceji0dmoyie2orq/AAC8zkIfLGo_MmtK21mOIUqxa/jazz.00040.au?dl=1'
p1122
sS'country.00099.au'
p1123
S'https://www.dropbox.com/sh/tyz3t14h5r5i49n/AADpDugeH3LHUrGyv2vymcVNa/country.00099.au?dl=1'
p1124
sS'disco.00094.au'
p1125
S'https://www.dropbox.com/sh/raf3ew7bvle3z2p/AAAczVGEY76fQM8F9OI7QX5ia/disco.00094.au?dl=1'
p1126
sS'jazz.00046.au'
p1127
S'https://www.dropbox.com/sh/ceji0dmoyie2orq/AAAhB8NWc9WTadxzMOIyncqVa/jazz.00046.au?dl=1'
p1128
sS'blues.00034.au'
p1129
S'https://www.dropbox.com/sh/afegxsw8f41vfbm/AABwSlcYwSm-DYcNj_klc4Jza/blues.00034.au?dl=1'
p1130
sS'metal.00003.au'
p1131
S'https://www.dropbox.com/sh/gqhgkkuvg6akab8/AACFnr6O7c0GYET6poi7IAe-a/metal.00003.au?dl=1'
p1132
sS'jazz.00098.au'
p1133
S'https://www.dropbox.com/sh/ceji0dmoyie2orq/AAC1da_A3ffY8kx4vIakgjOia/jazz.00098.au?dl=1'
p1134
sS'hiphop.00098.au'
p1135
S'https://www.dropbox.com/sh/rknigscckkp15et/AABZLGKvnCQABoBhr1k1EcYMa/hiphop.00098.au?dl=1'
p1136
sS'country.00044.au'
p1137
S'https://www.dropbox.com/sh/tyz3t14h5r5i49n/AABQESfSRneDzGnqDa18Pjdfa/country.00044.au?dl=1'
p1138
sS'classical.00056.au'
p1139
S'https://www.dropbox.com/sh/1cctr3dfrjccpdy/AABXC_bO1T6Xvu6K4kbY-i70a/classical.00056.au?dl=1'
p1140
sS'reggae.00009.au'
p1141
S'https://www.dropbox.com/sh/6unjnco4qqplysb/AACKQvoVpf54z3sAr5yG14yva/reggae.00009.au?dl=1'
p1142
sS'reggae.00095.au'
p1143
S'https://www.dropbox.com/sh/6unjnco4qqplysb/AACoxV6luKQB0TIGRMmu-XHda/reggae.00095.au?dl=1'
p1144
sS'pop.00033.au'
p1145
S'https://www.dropbox.com/sh/r7a0ya4679z1w1s/AADmylfPChGOmuFMtbSof5yLa/pop.00033.au?dl=1'
p1146
sS'pop.00086.au'
p1147
S'https://www.dropbox.com/sh/r7a0ya4679z1w1s/AABV2AsMkzzEjq_ZGJBtAt8Sa/pop.00086.au?dl=1'
p1148
sS'metal.00091.au'
p1149
S'https://www.dropbox.com/sh/gqhgkkuvg6akab8/AACECvftPCRUU5hzp6uVBUuQa/metal.00091.au?dl=1'
p1150
sS'metal.00048.au'
p1151
S'https://www.dropbox.com/sh/gqhgkkuvg6akab8/AAB9MkhM04meCAdwAXNr646La/metal.00048.au?dl=1'
p1152
sS'hiphop.00004.au'
p1153
S'https://www.dropbox.com/sh/rknigscckkp15et/AABXCPuuWo4mnNHAGvNnWE3Pa/hiphop.00004.au?dl=1'
p1154
sS'reggae.00007.au'
p1155
S'https://www.dropbox.com/sh/6unjnco4qqplysb/AAAAXlCzCwtDNE4-f1QLV85xa/reggae.00007.au?dl=1'
p1156
sS'reggae.00059.au'
p1157
S'https://www.dropbox.com/sh/6unjnco4qqplysb/AAA0STz61RpVaiMekOjpublUa/reggae.00059.au?dl=1'
p1158
sS'hiphop.00079.au'
p1159
S'https://www.dropbox.com/sh/rknigscckkp15et/AABnPPcdLX02Sb-JzYxAyeUma/hiphop.00079.au?dl=1'
p1160
sS'classical.00025.au'
p1161
S'https://www.dropbox.com/sh/1cctr3dfrjccpdy/AAA5deK9GMIbPop-LRW1QCuta/classical.00025.au?dl=1'
p1162
sS'blues.00080.au'
p1163
S'https://www.dropbox.com/sh/afegxsw8f41vfbm/AAB7898xL1L7hmAXRBfQj9Dla/blues.00080.au?dl=1'
p1164
sS'disco.00069.au'
p1165
S'https://www.dropbox.com/sh/raf3ew7bvle3z2p/AABFIk2OXvcvYnr9JhxlJdvQa/disco.00069.au?dl=1'
p1166
sS'hiphop.00025.au'
p1167
S'https://www.dropbox.com/sh/rknigscckkp15et/AADdTKofezNoKXTnryaCbRWja/hiphop.00025.au?dl=1'
p1168
sS'reggae.00010.au'
p1169
S'https://www.dropbox.com/sh/6unjnco4qqplysb/AACHNHAVpbdgsRVQsnnRyvdQa/reggae.00010.au?dl=1'
p1170
sS'classical.00061.au'
p1171
S'https://www.dropbox.com/sh/1cctr3dfrjccpdy/AAA9MImYp8I1G6jq8Bpm1A7sa/classical.00061.au?dl=1'
p1172
sS'pop.00048.au'
p1173
S'https://www.dropbox.com/sh/r7a0ya4679z1w1s/AAC7J6x8FdpRtMoKptyipFwda/pop.00048.au?dl=1'
p1174
sS'rock.00036.au'
p1175
S'https://www.dropbox.com/sh/uotvtqu4g8fcu63/AABOakV6awKgJRbX8H7Ro-T7a/rock.00036.au?dl=1'
p1176
sS'pop.00061.au'
p1177
S'https://www.dropbox.com/sh/r7a0ya4679z1w1s/AABWJq6vCKuCEDszrKxU2tGqa/pop.00061.au?dl=1'
p1178
sS'blues.00049.au'
p1179
S'https://www.dropbox.com/sh/afegxsw8f41vfbm/AADO_tokgzG96WmSlEZl0UuIa/blues.00049.au?dl=1'
p1180
sS'disco.00055.au'
p1181
S'https://www.dropbox.com/sh/raf3ew7bvle3z2p/AADeihZKnAceW1PX4doLl30Wa/disco.00055.au?dl=1'
p1182
sS'rock.00024.au'
p1183
S'https://www.dropbox.com/sh/uotvtqu4g8fcu63/AAAS2a-bHoRUFGh3tEUwi_ZYa/rock.00024.au?dl=1'
p1184
sS'blues.00016.au'
p1185
S'https://www.dropbox.com/sh/afegxsw8f41vfbm/AACa_lT1XAhTBJGtAmMfYYCra/blues.00016.au?dl=1'
p1186
sS'blues.00099.au'
p1187
S'https://www.dropbox.com/sh/afegxsw8f41vfbm/AABgk-BBLk3V9YiT5EOeyg9Ra/blues.00099.au?dl=1'
p1188
sS'pop.00081.au'
p1189
S'https://www.dropbox.com/sh/r7a0ya4679z1w1s/AADN-VnXLtt0Ul3BsEbuYq1Ka/pop.00081.au?dl=1'
p1190
sS'blues.00035.au'
p1191
S'https://www.dropbox.com/sh/afegxsw8f41vfbm/AACUqmF_3eVhhCPhwROtg0g4a/blues.00035.au?dl=1'
p1192
sS'rock.00094.au'
p1193
S'https://www.dropbox.com/sh/uotvtqu4g8fcu63/AADmDPIbOxOHl_jAEWY98bwna/rock.00094.au?dl=1'
p1194
sS'pop.00092.au'
p1195
S'https://www.dropbox.com/sh/r7a0ya4679z1w1s/AABF7OELKwmBdGga3lA3enyca/pop.00092.au?dl=1'
p1196
sS'hiphop.00099.au'
p1197
S'https://www.dropbox.com/sh/rknigscckkp15et/AAAm9eRe2HIAbV_HXCoGtHlYa/hiphop.00099.au?dl=1'
p1198
sS'hiphop.00080.au'
p1199
S'https://www.dropbox.com/sh/rknigscckkp15et/AAANkn8YC7pOCK8BLMkUKX56a/hiphop.00080.au?dl=1'
p1200
sS'blues.00033.au'
p1201
S'https://www.dropbox.com/sh/afegxsw8f41vfbm/AACABB23FSZJoJcbp_wsvtTra/blues.00033.au?dl=1'
p1202
sS'jazz.00016.au'
p1203
S'https://www.dropbox.com/sh/ceji0dmoyie2orq/AAAfXvYrg3sdcTil4OeksDu2a/jazz.00016.au?dl=1'
p1204
sS'reggae.00091.au'
p1205
S'https://www.dropbox.com/sh/6unjnco4qqplysb/AAD0Rh02mrc-n6Gdrnbtddp_a/reggae.00091.au?dl=1'
p1206
sS'classical.00050.au'
p1207
S'https://www.dropbox.com/sh/1cctr3dfrjccpdy/AAAIGeaInnnAtc06O18-Qbg9a/classical.00050.au?dl=1'
p1208
sS'jazz.00079.au'
p1209
S'https://www.dropbox.com/sh/ceji0dmoyie2orq/AACcpmd--CdIImY25sMzD67ca/jazz.00079.au?dl=1'
p1210
sS'metal.00096.au'
p1211
S'https://www.dropbox.com/sh/gqhgkkuvg6akab8/AACEda4u2hGddB6BPwU5bt4da/metal.00096.au?dl=1'
p1212
sS'disco.00020.au'
p1213
S'https://www.dropbox.com/sh/raf3ew7bvle3z2p/AAC1-klaLhnw0tpwMUcr6EXya/disco.00020.au?dl=1'
p1214
sS'metal.00064.au'
p1215
S'https://www.dropbox.com/sh/gqhgkkuvg6akab8/AACf6Tkwq-wr6tRZ3HB8feIGa/metal.00064.au?dl=1'
p1216
sS'hiphop.00013.au'
p1217
S'https://www.dropbox.com/sh/rknigscckkp15et/AAC6_n3iZSQIVGGl80tYskMNa/hiphop.00013.au?dl=1'
p1218
sS'rock.00076.au'
p1219
S'https://www.dropbox.com/sh/uotvtqu4g8fcu63/AAAXHhcb8lyUEWQBI8D0lGdUa/rock.00076.au?dl=1'
p1220
sS'pop.00035.au'
p1221
S'https://www.dropbox.com/sh/r7a0ya4679z1w1s/AAC_CT4DjoxxpB0Y0NftqJIOa/pop.00035.au?dl=1'
p1222
sS'country.00005.au'
p1223
S'https://www.dropbox.com/sh/tyz3t14h5r5i49n/AABHYi-9eC_twl-H0-OzENIra/country.00005.au?dl=1'
p1224
sS'jazz.00089.au'
p1225
S'https://www.dropbox.com/sh/ceji0dmoyie2orq/AABMmpnob7L9reHOg-9noyHDa/jazz.00089.au?dl=1'
p1226
sS'hiphop.00086.au'
p1227
S'https://www.dropbox.com/sh/rknigscckkp15et/AAC5vyvrQPoeo5aEoUXGYQgTa/hiphop.00086.au?dl=1'
p1228
sS'country.00021.au'
p1229
S'https://www.dropbox.com/sh/tyz3t14h5r5i49n/AACHgoVmBHDA12IH5CYXqyQla/country.00021.au?dl=1'
p1230
sS'blues.00029.au'
p1231
S'https://www.dropbox.com/sh/afegxsw8f41vfbm/AABBGHdD6jaGZr423rHJ0ZB5a/blues.00029.au?dl=1'
p1232
sS'classical.00093.au'
p1233
S'https://www.dropbox.com/sh/1cctr3dfrjccpdy/AAAC8XJWw2GWEoI8oSSIFiCTa/classical.00093.au?dl=1'
p1234
sS'rock.00048.au'
p1235
S'https://www.dropbox.com/sh/uotvtqu4g8fcu63/AAAUmFdVr10h0QZvCLMWRO6oa/rock.00048.au?dl=1'
p1236
sS'disco.00071.au'
p1237
S'https://www.dropbox.com/sh/raf3ew7bvle3z2p/AADOTSYD5SATg-MuvD4wIWOxa/disco.00071.au?dl=1'
p1238
sS'disco.00077.au'
p1239
S'https://www.dropbox.com/sh/raf3ew7bvle3z2p/AACNjZEQx-wjXRQQQx_Q2pKza/disco.00077.au?dl=1'
p1240
sS'reggae.00037.au'
p1241
S'https://www.dropbox.com/sh/6unjnco4qqplysb/AAD4sgmaSJF7XUWriipPnY68a/reggae.00037.au?dl=1'
p1242
sS'hiphop.00006.au'
p1243
S'https://www.dropbox.com/sh/rknigscckkp15et/AAD-2b0Vbc8cApxRwMXGNyAja/hiphop.00006.au?dl=1'
p1244
sS'hiphop.00023.au'
p1245
S'https://www.dropbox.com/sh/rknigscckkp15et/AADA4Jo1U8qy5hnbUCZQYK8ja/hiphop.00023.au?dl=1'
p1246
sS'reggae.00012.au'
p1247
S'https://www.dropbox.com/sh/6unjnco4qqplysb/AADvhuittW3MMQFBaOt8zRJ6a/reggae.00012.au?dl=1'
p1248
sS'classical.00043.au'
p1249
S'https://www.dropbox.com/sh/1cctr3dfrjccpdy/AAByyiOwHWhR9GjB_LpvdeuZa/classical.00043.au?dl=1'
p1250
sS'jazz.00003.au'
p1251
S'https://www.dropbox.com/sh/rknigscckkp15et/AACoTnyXVfrztnBAs0wgBS0sa/jazz.00003.au?dl=1'
p1252
sS'disco.00022.au'
p1253
S'https://www.dropbox.com/sh/raf3ew7bvle3z2p/AACQs-f_4VdXxN9r1VbGPJYEa/disco.00022.au?dl=1'
p1254
sS'pop.00088.au'
p1255
S'https://www.dropbox.com/sh/r7a0ya4679z1w1s/AAD2zgaCE0gfU7SGOaY0PnhTa/pop.00088.au?dl=1'
p1256
sS'jazz.00091.au'
p1257
S'https://www.dropbox.com/sh/ceji0dmoyie2orq/AAC7qWGIKqaz90YlyJeLOi-ja/jazz.00091.au?dl=1'
p1258
sS'jazz.00001.au'
p1259
S'https://www.dropbox.com/sh/rknigscckkp15et/AACw_PD451J6wMiNaPUlMkowa/jazz.00001.au?dl=1'
p1260
sS'metal.00056.au'
p1261
S'https://www.dropbox.com/sh/gqhgkkuvg6akab8/AAD6c3oP8kisPoIDs1LtZpXHa/metal.00056.au?dl=1'
p1262
sS'blues.00027.au'
p1263
S'https://www.dropbox.com/sh/afegxsw8f41vfbm/AABFOB7g6T9laX-Lcdrp0-4_a/blues.00027.au?dl=1'
p1264
sS'classical.00052.au'
p1265
S'https://www.dropbox.com/sh/1cctr3dfrjccpdy/AABt01kNrmLRfIGo5XjNFeK4a/classical.00052.au?dl=1'
p1266
sS'disco.00001.au'
p1267
S'https://www.dropbox.com/sh/raf3ew7bvle3z2p/AAD2Fw0GwPD8jqtjWtiWzqKMa/disco.00001.au?dl=1'
p1268
sS'blues.00031.au'
p1269
S'https://www.dropbox.com/sh/afegxsw8f41vfbm/AABsdSTAQcdQQLxTWiLqzPNea/blues.00031.au?dl=1'
p1270
sS'pop.00019.au'
p1271
S'https://www.dropbox.com/sh/r7a0ya4679z1w1s/AADqYCpzeI5pIw2AE09Sb5tha/pop.00019.au?dl=1'
p1272
sS'hiphop.00012.au'
p1273
S'https://www.dropbox.com/sh/rknigscckkp15et/AABirixCyYa8h7UiBmaC0EGMa/hiphop.00012.au?dl=1'
p1274
sS'hiphop.00051.au'
p1275
S'https://www.dropbox.com/sh/rknigscckkp15et/AAAnAoLQgfKYzvRAIAmu-9zfa/hiphop.00051.au?dl=1'
p1276
sS'hiphop.00057.au'
p1277
S'https://www.dropbox.com/sh/rknigscckkp15et/AADGLgz076EbgXcFyLV4yAVNa/hiphop.00057.au?dl=1'
p1278
sS'disco.00059.au'
p1279
S'https://www.dropbox.com/sh/raf3ew7bvle3z2p/AABaUohiiro8tKcZE183QTxma/disco.00059.au?dl=1'
p1280
sS'hiphop.00097.au'
p1281
S'https://www.dropbox.com/sh/rknigscckkp15et/AAD-kntwholePf1XIP8dvjg2a/hiphop.00097.au?dl=1'
p1282
sS'classical.00081.au'
p1283
S'https://www.dropbox.com/sh/1cctr3dfrjccpdy/AACoKkqSVeqe49CVL74l5OWaa/classical.00081.au?dl=1'
p1284
sS'rock.00085.au'
p1285
S'https://www.dropbox.com/sh/uotvtqu4g8fcu63/AABnrDXnBhCNpU7iGEDH5iXLa/rock.00085.au?dl=1'
p1286
sS'jazz.00031.au'
p1287
S'https://www.dropbox.com/sh/ceji0dmoyie2orq/AADhLFNy9KzMBDOjJnYRPyq0a/jazz.00031.au?dl=1'
p1288
sS'classical.00083.au'
p1289
S'https://www.dropbox.com/sh/1cctr3dfrjccpdy/AACcO0VJWFG7LVFP_-rhBi5Ja/classical.00083.au?dl=1'
p1290
sS'pop.00009.au'
p1291
S'https://www.dropbox.com/sh/r7a0ya4679z1w1s/AAC6ocygLDu6vY8gTW03Ti96a/pop.00009.au?dl=1'
p1292
sS'blues.00084.au'
p1293
S'https://www.dropbox.com/sh/afegxsw8f41vfbm/AADli1HxRM6NTUUoicpKrS-qa/blues.00084.au?dl=1'
p1294
sS'rock.00026.au'
p1295
S'https://www.dropbox.com/sh/uotvtqu4g8fcu63/AAC6pPED3s7FzP-LsRoXggjsa/rock.00026.au?dl=1'
p1296
sS'country.00053.au'
p1297
S'https://www.dropbox.com/sh/tyz3t14h5r5i49n/AAATQchY8Kl-CzpLHXRKCBbqa/country.00053.au?dl=1'
p1298
sS'country.00032.au'
p1299
S'https://www.dropbox.com/sh/tyz3t14h5r5i49n/AADcuPTON8Vsvvkie3wYP7ona/country.00032.au?dl=1'
p1300
sS'hiphop.00082.au'
p1301
S'https://www.dropbox.com/sh/rknigscckkp15et/AADLHRm2wmVy2zrC2GS7gpHCa/hiphop.00082.au?dl=1'
p1302
sS'rock.00064.au'
p1303
S'https://www.dropbox.com/sh/uotvtqu4g8fcu63/AABV0m_Wpo8NH_KwoRSRwsw4a/rock.00064.au?dl=1'
p1304
sS'classical.00063.au'
p1305
S'https://www.dropbox.com/sh/1cctr3dfrjccpdy/AADH5--MZrKmf38ve9ZWsK4Ua/classical.00063.au?dl=1'
p1306
sS'hiphop.00002.au'
p1307
S'https://www.dropbox.com/sh/rknigscckkp15et/AABm4eNuPWCHwEOFQ0EUVQioa/hiphop.00002.au?dl=1'
p1308
sS'classical.00006.au'
p1309
S'https://www.dropbox.com/sh/1cctr3dfrjccpdy/AACOzbYfm1NXVcjo7-_pwORUa/classical.00006.au?dl=1'
p1310
sS'classical.00026.au'
p1311
S'https://www.dropbox.com/sh/1cctr3dfrjccpdy/AABHsQjEHKbukB8zPGf0xmNEa/classical.00026.au?dl=1'
p1312
sS'metal.00061.au'
p1313
S'https://www.dropbox.com/sh/gqhgkkuvg6akab8/AABdUtCCVSzaVmf48yw9cwMWa/metal.00061.au?dl=1'
p1314
sS'pop.00044.au'
p1315
S'https://www.dropbox.com/sh/r7a0ya4679z1w1s/AACEx2ipZOQnKN2igShD3npVa/pop.00044.au?dl=1'
p1316
sS'classical.00098.au'
p1317
S'https://www.dropbox.com/sh/1cctr3dfrjccpdy/AADkNJVvQF3azegkgK94OFFga/classical.00098.au?dl=1'
p1318
sS'country.00087.au'
p1319
S'https://www.dropbox.com/sh/tyz3t14h5r5i49n/AADKkldaZ1kLIbF1hZ4D_rdra/country.00087.au?dl=1'
p1320
sS'hiphop.00001.au'
p1321
S'https://www.dropbox.com/sh/rknigscckkp15et/AADs2AFQ0HYotHtxJc-zjOdWa/hiphop.00001.au?dl=1'
p1322
sS'pop.00046.au'
p1323
S'https://www.dropbox.com/sh/r7a0ya4679z1w1s/AADrQLaeEeC4XW1gUWj-aCKKa/pop.00046.au?dl=1'
p1324
sS'metal.00078.au'
p1325
S'https://www.dropbox.com/sh/gqhgkkuvg6akab8/AACb6pSArF_WgJdivxgMoXbGa/metal.00078.au?dl=1'
p1326
sS'metal.00019.au'
p1327
S'https://www.dropbox.com/sh/gqhgkkuvg6akab8/AACRXi268HPCkHaoqEnySvJFa/metal.00019.au?dl=1'
p1328
sS'disco.00004.au'
p1329
S'https://www.dropbox.com/sh/raf3ew7bvle3z2p/AAAdACjG7FGtkf0b1jzt8f3qa/disco.00004.au?dl=1'
p1330
sS'pop.00098.au'
p1331
S'https://www.dropbox.com/sh/r7a0ya4679z1w1s/AABSD-K7Ymr7DoePI8lwsG-2a/pop.00098.au?dl=1'
p1332
sS'blues.00075.au'
p1333
S'https://www.dropbox.com/sh/afegxsw8f41vfbm/AADLizc0265tcdE5iFHLZyjOa/blues.00075.au?dl=1'
p1334
sS'country.00081.au'
p1335
S'https://www.dropbox.com/sh/tyz3t14h5r5i49n/AAAYrN82U53F1fxxzJrG6-Yza/country.00081.au?dl=1'
p1336
sS'disco.00063.au'
p1337
S'https://www.dropbox.com/sh/raf3ew7bvle3z2p/AACAlJUqWOYxpGR9eBo6SNFUa/disco.00063.au?dl=1'
p1338
sS'rock.00051.au'
p1339
S'https://www.dropbox.com/sh/uotvtqu4g8fcu63/AACu_4L8CROMsmxXNgdD2DvZa/rock.00051.au?dl=1'
p1340
sS'disco.00072.au'
p1341
S'https://www.dropbox.com/sh/raf3ew7bvle3z2p/AACOFgVMg_hXEv5rgvy-wXlZa/disco.00072.au?dl=1'
p1342
sS'classical.00096.au'
p1343
S'https://www.dropbox.com/sh/1cctr3dfrjccpdy/AABF3ZPqW1GBBiHn07_CYEYTa/classical.00096.au?dl=1'
p1344
sS'hiphop.00044.au'
p1345
S'https://www.dropbox.com/sh/rknigscckkp15et/AADZ3BWOd5ila3aCtRIXptSJa/hiphop.00044.au?dl=1'
p1346
sS'disco.00030.au'
p1347
S'https://www.dropbox.com/sh/raf3ew7bvle3z2p/AAC_qDX5DMDhKn3XrhCVNGfDa/disco.00030.au?dl=1'
p1348
sS'classical.00002.au'
p1349
S'https://www.dropbox.com/sh/1cctr3dfrjccpdy/AADjbdS-s0Ap7AjvTwWM_Y3ra/classical.00002.au?dl=1'
p1350
sS'classical.00004.au'
p1351
S'https://www.dropbox.com/sh/1cctr3dfrjccpdy/AAAp0MaeLG6Am-zaPdNFNFKqa/classical.00004.au?dl=1'
p1352
sS'hiphop.00055.au'
p1353
S'https://www.dropbox.com/sh/rknigscckkp15et/AACC4bzumXJKtKL9bbYGY0Era/hiphop.00055.au?dl=1'
p1354
sS'jazz.00059.au'
p1355
S'https://www.dropbox.com/sh/ceji0dmoyie2orq/AADnxjPAJUTlbe-5FagyIa8ya/jazz.00059.au?dl=1'
p1356
sS'reggae.00043.au'
p1357
S'https://www.dropbox.com/sh/6unjnco4qqplysb/AAAI-2oAxU1LI8wsONvDlc5ta/reggae.00043.au?dl=1'
p1358
sS'metal.00036.au'
p1359
S'https://www.dropbox.com/sh/gqhgkkuvg6akab8/AAA86EtF80oKd-VMHWFXSf6Ta/metal.00036.au?dl=1'
p1360
sS'rock.00001.au'
p1361
S'https://www.dropbox.com/sh/uotvtqu4g8fcu63/AAC6AkV5uIjwi9kmbzU8y_URa/rock.00001.au?dl=1'
p1362
sS'blues.00088.au'
p1363
S'https://www.dropbox.com/sh/afegxsw8f41vfbm/AACSrstJI0nHN2pJSmZy45gha/blues.00088.au?dl=1'
p1364
sS'disco.00038.au'
p1365
S'https://www.dropbox.com/sh/raf3ew7bvle3z2p/AADqWg7wBl0RJqiNAbYpaibYa/disco.00038.au?dl=1'
p1366
sS'rock.00030.au'
p1367
S'https://www.dropbox.com/sh/uotvtqu4g8fcu63/AABrUrOWVjFBDyVHdzpOljq3a/rock.00030.au?dl=1'
p1368
sS'reggae.00041.au'
p1369
S'https://www.dropbox.com/sh/6unjnco4qqplysb/AAB3Cnz-oh1BnVzABOjBSx3ha/reggae.00041.au?dl=1'
p1370
sS'metal.00005.au'
p1371
S'https://www.dropbox.com/sh/gqhgkkuvg6akab8/AAAxuD5qXOrPvNtLN2gqLIkea/metal.00005.au?dl=1'
p1372
sS'disco.00015.au'
p1373
S'https://www.dropbox.com/sh/raf3ew7bvle3z2p/AADwPi8W_MaW-GLHNW-yQmHla/disco.00015.au?dl=1'
p1374
sS'blues.00086.au'
p1375
S'https://www.dropbox.com/sh/afegxsw8f41vfbm/AACQvORBgSTdwrn7cT5YXVnqa/blues.00086.au?dl=1'
p1376
sS'blues.00040.au'
p1377
S'https://www.dropbox.com/sh/afegxsw8f41vfbm/AABgbzIJYOUHoQBbLRTaRtYQa/blues.00040.au?dl=1'
p1378
sS'pop.00068.au'
p1379
S'https://www.dropbox.com/sh/r7a0ya4679z1w1s/AACYHAaiDI7NRLn1N8TLD5VAa/pop.00068.au?dl=1'
p1380
sS'rock.00087.au'
p1381
S'https://www.dropbox.com/sh/uotvtqu4g8fcu63/AACgMKGDfLiyG7LKnNadJRIXa/rock.00087.au?dl=1'
p1382
sS'country.00015.au'
p1383
S'https://www.dropbox.com/sh/tyz3t14h5r5i49n/AACJ7oxmCGzDltYoDYqTazZNa/country.00015.au?dl=1'
p1384
sS'country.00085.au'
p1385
S'https://www.dropbox.com/sh/tyz3t14h5r5i49n/AABtp3-P3Rs8qmWN8owcHb8na/country.00085.au?dl=1'
p1386
sS'reggae.00039.au'
p1387
S'https://www.dropbox.com/sh/6unjnco4qqplysb/AADKHmByoZadW7TiOR2W0qJGa/reggae.00039.au?dl=1'
p1388
sS'rock.00019.au'
p1389
S'https://www.dropbox.com/sh/uotvtqu4g8fcu63/AAClbFNV_HaYsNtEhZCP-i2da/rock.00019.au?dl=1'
p1390
sS'blues.00007.au'
p1391
S'https://www.dropbox.com/sh/afegxsw8f41vfbm/AAAzZuH_oOoAbfKPH2Dt4nvJa/blues.00007.au?dl=1'
p1392
sS'disco.00057.au'
p1393
S'https://www.dropbox.com/sh/raf3ew7bvle3z2p/AAAbsBh9ys8lqUEleQiuLLhca/disco.00057.au?dl=1'
p1394
sS'classical.00038.au'
p1395
S'https://www.dropbox.com/sh/1cctr3dfrjccpdy/AABzU0FC2s3p8bSkoeuXkwvda/classical.00038.au?dl=1'
p1396
sS'country.00026.au'
p1397
S'https://www.dropbox.com/sh/tyz3t14h5r5i49n/AACmzcPvp0x4T9S7uYV-zkHZa/country.00026.au?dl=1'
p1398
sS'rock.00018.au'
p1399
S'https://www.dropbox.com/sh/uotvtqu4g8fcu63/AABS8LPGfxNMwnzE5asMVgj2a/rock.00018.au?dl=1'
p1400
sS'blues.00012.au'
p1401
S'https://www.dropbox.com/sh/afegxsw8f41vfbm/AACp2DSM9kMZ5RstL1iEce0Xa/blues.00012.au?dl=1'
p1402
sS'blues.00005.au'
p1403
S'https://www.dropbox.com/sh/afegxsw8f41vfbm/AAAtYPVV6iYBm4hhCip-qDrpa/blues.00005.au?dl=1'
p1404
sS'disco.00000.au'
p1405
S'https://www.dropbox.com/sh/raf3ew7bvle3z2p/AACE-8-mR6led6Pig_AXpDjMa/disco.00000.au?dl=1'
p1406
sS'metal.00044.au'
p1407
S'https://www.dropbox.com/sh/gqhgkkuvg6akab8/AADRj71BPa-zsbYQkXO6D5jja/metal.00044.au?dl=1'
p1408
sS'rock.00038.au'
p1409
S'https://www.dropbox.com/sh/uotvtqu4g8fcu63/AADnXS9JD3-2AHz9dDA6jpesa/rock.00038.au?dl=1'
p1410
sS'reggae.00049.au'
p1411
S'https://www.dropbox.com/sh/6unjnco4qqplysb/AADUd1zI3I1yZVQT-UwKJVmna/reggae.00049.au?dl=1'
p1412
sS'metal.00052.au'
p1413
S'https://www.dropbox.com/sh/gqhgkkuvg6akab8/AAB_qYtKX5wU78sInt4cD9mEa/metal.00052.au?dl=1'
p1414
sS'pop.00096.au'
p1415
S'https://www.dropbox.com/sh/r7a0ya4679z1w1s/AABvq2oQsVIM5AOHgBuD0lhga/pop.00096.au?dl=1'
p1416
sS'rock.00086.au'
p1417
S'https://www.dropbox.com/sh/uotvtqu4g8fcu63/AACPI17hBXGYafZNIDGyxlDUa/rock.00086.au?dl=1'
p1418
sS'blues.00038.au'
p1419
S'https://www.dropbox.com/sh/afegxsw8f41vfbm/AAD51Gr5_86dlDUx-UBrZTcHa/blues.00038.au?dl=1'
p1420
sS'hiphop.00037.au'
p1421
S'https://www.dropbox.com/sh/rknigscckkp15et/AAAE9Im0JPp4mLgS3d-J1nzMa/hiphop.00037.au?dl=1'
p1422
sS'jazz.00004.au'
p1423
S'https://www.dropbox.com/sh/rknigscckkp15et/AACcbtGaqm3-wKjR3dwCQY0ba/jazz.00004.au?dl=1'
p1424
sS'reggae.00000.au'
p1425
S'https://www.dropbox.com/sh/6unjnco4qqplysb/AABv3it7B0cs47d7euTpzrGoa/reggae.00000.au?dl=1'
p1426
sS'rock.00071.au'
p1427
S'https://www.dropbox.com/sh/uotvtqu4g8fcu63/AAC-XwXkmgDei5fphE2J18Jxa/rock.00071.au?dl=1'
p1428
sS'classical.00020.au'
p1429
S'https://www.dropbox.com/sh/1cctr3dfrjccpdy/AABBNyDvrZO6fvBs7f5ad1nCa/classical.00020.au?dl=1'
p1430
sS'jazz.00002.au'
p1431
S'https://www.dropbox.com/sh/rknigscckkp15et/AADNFU1B7u8y6oV5jr3MUxAka/jazz.00002.au?dl=1'
p1432
sS'hiphop.00062.au'
p1433
S'https://www.dropbox.com/sh/rknigscckkp15et/AABNWDS1rpM5LEY8Y0GpGZwla/hiphop.00062.au?dl=1'
p1434
sS'reggae.00017.au'
p1435
S'https://www.dropbox.com/sh/6unjnco4qqplysb/AADRrKmHFIXHO1E9Ul-e0zHxa/reggae.00017.au?dl=1'
p1436
sS'jazz.00057.au'
p1437
S'https://www.dropbox.com/sh/ceji0dmoyie2orq/AABse7DHYthroM5QhykEoDXma/jazz.00057.au?dl=1'
p1438
sS'blues.00043.au'
p1439
S'https://www.dropbox.com/sh/afegxsw8f41vfbm/AADCnsaRueWNoytn_rdnTcL4a/blues.00043.au?dl=1'
p1440
sS'reggae.00019.au'
p1441
S'https://www.dropbox.com/sh/6unjnco4qqplysb/AAA52-NHkVH5erqEl1U8K6MPa/reggae.00019.au?dl=1'
p1442
sS'reggae.00096.au'
p1443
S'https://www.dropbox.com/sh/6unjnco4qqplysb/AAAdHCXEX2uqwIPORESAJDoja/reggae.00096.au?dl=1'
p1444
sS'rock.00042.au'
p1445
S'https://www.dropbox.com/sh/uotvtqu4g8fcu63/AAAl8HhuMh2OlKaFVgxfIk5va/rock.00042.au?dl=1'
p1446
sS'jazz.00027.au'
p1447
S'https://www.dropbox.com/sh/ceji0dmoyie2orq/AACnYwoPLBY4iekulUXk3k2Wa/jazz.00027.au?dl=1'
p1448
sS'classical.00001.au'
p1449
S'https://www.dropbox.com/sh/1cctr3dfrjccpdy/AAAjQs0TsBU5D2GIezjxoQbYa/classical.00001.au?dl=1'
p1450
sS'classical.00091.au'
p1451
S'https://www.dropbox.com/sh/1cctr3dfrjccpdy/AAD7FVPazGBMq404Y-W7IMP-a/classical.00091.au?dl=1'
p1452
sS'rock.00003.au'
p1453
S'https://www.dropbox.com/sh/uotvtqu4g8fcu63/AAB3OD5aVzIaQFz6NKVkVCSHa/rock.00003.au?dl=1'
p1454
sS'metal.00066.au'
p1455
S'https://www.dropbox.com/sh/gqhgkkuvg6akab8/AADf_0bouGHVkdTEc2q5Vaa-a/metal.00066.au?dl=1'
p1456
sS'classical.00003.au'
p1457
S'https://www.dropbox.com/sh/1cctr3dfrjccpdy/AACpRltBUdjMPPpNp3sHTnsKa/classical.00003.au?dl=1'
p1458
sS'rock.00017.au'
p1459
S'https://www.dropbox.com/sh/uotvtqu4g8fcu63/AAASg9AlCtOitFtptLs0khWva/rock.00017.au?dl=1'
p1460
sS'disco.00097.au'
p1461
S'https://www.dropbox.com/sh/raf3ew7bvle3z2p/AACZIbh57Lp44xy7mrGK77tka/disco.00097.au?dl=1'
p1462
sS'classical.00086.au'
p1463
S'https://www.dropbox.com/sh/1cctr3dfrjccpdy/AABl785wee4me7odmmo4-R_sa/classical.00086.au?dl=1'
p1464
sS'jazz.00044.au'
p1465
S'https://www.dropbox.com/sh/ceji0dmoyie2orq/AABANOlnDdGkbVZOXgvBrzUBa/jazz.00044.au?dl=1'
p1466
sS'hiphop.00094.au'
p1467
S'https://www.dropbox.com/sh/rknigscckkp15et/AAAbv14QctmeLcPx5MFo-LoLa/hiphop.00094.au?dl=1'
p1468
sS'classical.00088.au'
p1469
S'https://www.dropbox.com/sh/1cctr3dfrjccpdy/AABQg3gB-QModyHaiHBYF5Zqa/classical.00088.au?dl=1'
p1470
sS'jazz.00060.au'
p1471
S'https://www.dropbox.com/sh/ceji0dmoyie2orq/AAB3JEjpbP1qJfpteIJ5oxo9a/jazz.00060.au?dl=1'
p1472
sS'jazz.00075.au'
p1473
S'https://www.dropbox.com/sh/ceji0dmoyie2orq/AACYHFTM4yoviGr1r3ODA6NWa/jazz.00075.au?dl=1'
p1474
sS'jazz.00029.au'
p1475
S'https://www.dropbox.com/sh/ceji0dmoyie2orq/AACH_dp3c6_Vodgol7x26a1Sa/jazz.00029.au?dl=1'
p1476
sS'rock.00015.au'
p1477
S'https://www.dropbox.com/sh/uotvtqu4g8fcu63/AAD7tV3RTxc6AK-hDWFhpJd0a/rock.00015.au?dl=1'
p1478
sS'country.00055.au'
p1479
S'https://www.dropbox.com/sh/tyz3t14h5r5i49n/AADLd33n2vL5g-4XTFovt83qa/country.00055.au?dl=1'
p1480
sS'metal.00026.au'
p1481
S'https://www.dropbox.com/sh/gqhgkkuvg6akab8/AADpiYDU7Dlyu26TJxa-vvhqa/metal.00026.au?dl=1'
p1482
sS'reggae.00062.au'
p1483
S'https://www.dropbox.com/sh/6unjnco4qqplysb/AABYbR_9jSoR38qEG0MmJbIja/reggae.00062.au?dl=1'
p1484
sS'rock.00053.au'
p1485
S'https://www.dropbox.com/sh/uotvtqu4g8fcu63/AADNC2cCIu5BB9Srpb6zhXdCa/rock.00053.au?dl=1'
p1486
sS'rock.00020.au'
p1487
S'https://www.dropbox.com/sh/uotvtqu4g8fcu63/AAAwSZ8KHsqxaq8BYoEnYrPUa/rock.00020.au?dl=1'
p1488
sS'hiphop.00031.au'
p1489
S'https://www.dropbox.com/sh/rknigscckkp15et/AABpJNtjYSUbObxwT0eoe_BKa/hiphop.00031.au?dl=1'
p1490
sS'rock.00055.au'
p1491
S'https://www.dropbox.com/sh/uotvtqu4g8fcu63/AACVyhhk1iQOfSti5mYHWjISa/rock.00055.au?dl=1'
p1492
sS'reggae.00064.au'
p1493
S'https://www.dropbox.com/sh/6unjnco4qqplysb/AAC9tgWPsNfaaVAa4mPJJW6la/reggae.00064.au?dl=1'
p1494
sS'classical.00036.au'
p1495
S'https://www.dropbox.com/sh/1cctr3dfrjccpdy/AAC3FywxzZ7wYwmS2vBkhuWIa/classical.00036.au?dl=1'
p1496
sS'hiphop.00033.au'
p1497
S'https://www.dropbox.com/sh/rknigscckkp15et/AABHvNRIT5uK4oCp6OtuK_wTa/hiphop.00033.au?dl=1'
p1498
sS'country.00017.au'
p1499
S'https://www.dropbox.com/sh/tyz3t14h5r5i49n/AAD693bN4lYYwSoxLjdFR3-Ya/country.00017.au?dl=1'
p1500
sS'reggae.00025.au'
p1501
S'https://www.dropbox.com/sh/6unjnco4qqplysb/AAB6LhvYvwOz0bCy6yHy0moTa/reggae.00025.au?dl=1'
p1502
sS'jazz.00084.au'
p1503
S'https://www.dropbox.com/sh/ceji0dmoyie2orq/AAA5PKPqjjvtRd-ldJPLIgPca/jazz.00084.au?dl=1'
p1504
sS'blues.00062.au'
p1505
S'https://www.dropbox.com/sh/afegxsw8f41vfbm/AADTOrDJRrINYjk3iUYDErs8a/blues.00062.au?dl=1'
p1506
sS'classical.00072.au'
p1507
S'https://www.dropbox.com/sh/1cctr3dfrjccpdy/AADld-WGnecCePenHhWfTqn9a/classical.00072.au?dl=1'
p1508
sS'rock.00092.au'
p1509
S'https://www.dropbox.com/sh/uotvtqu4g8fcu63/AACy4rvVBXjLUAlaCSc68VPCa/rock.00092.au?dl=1'
p1510
sS'hiphop.00009.au'
p1511
S'https://www.dropbox.com/sh/rknigscckkp15et/AADSD0a75_mLM9INCZeJf2RRa/hiphop.00009.au?dl=1'
p1512
sS'country.00030.au'
p1513
S'https://www.dropbox.com/sh/tyz3t14h5r5i49n/AABv40WOLHBJ3Wn_oN7Nb4FGa/country.00030.au?dl=1'
p1514
sS'rock.00022.au'
p1515
S'https://www.dropbox.com/sh/uotvtqu4g8fcu63/AAD6J1pO_bgmP9GTR7gxJaIha/rock.00022.au?dl=1'
p1516
sS'hiphop.00060.au'
p1517
S'https://www.dropbox.com/sh/rknigscckkp15et/AACz7mjLcI6Q3A4N_4hagLk7a/hiphop.00060.au?dl=1'
p1518
sS'disco.00046.au'
p1519
S'https://www.dropbox.com/sh/raf3ew7bvle3z2p/AAAGvprNUZdAWLXmxni3nrlra/disco.00046.au?dl=1'
p1520
sS'pop.00040.au'
p1521
S'https://www.dropbox.com/sh/r7a0ya4679z1w1s/AAAdxsgK9IpMyPbq9s8lfhn2a/pop.00040.au?dl=1'
p1522
sS'disco.00044.au'
p1523
S'https://www.dropbox.com/sh/raf3ew7bvle3z2p/AABG18ZA-OnUAnDdimEcQ5W-a/disco.00044.au?dl=1'
p1524
sS'jazz.00021.au'
p1525
S'https://www.dropbox.com/sh/ceji0dmoyie2orq/AABCPBTRFkSvnSzuc6qPCqsva/jazz.00021.au?dl=1'
p1526
sS'jazz.00049.au'
p1527
S'https://www.dropbox.com/sh/ceji0dmoyie2orq/AABT4YHMBchK1rsH6l2wntbea/jazz.00049.au?dl=1'
p1528
sS'jazz.00023.au'
p1529
S'https://www.dropbox.com/sh/ceji0dmoyie2orq/AACaKbe72CDmvNZWaHfegV7na/jazz.00023.au?dl=1'
p1530
sS'metal.00087.au'
p1531
S'https://www.dropbox.com/sh/gqhgkkuvg6akab8/AADAA6wKEhuuC1OwA3v82kG8a/metal.00087.au?dl=1'
p1532
sS'disco.00009.au'
p1533
S'https://www.dropbox.com/sh/raf3ew7bvle3z2p/AAAI4DfUCvfSsGeNGlt_mDyfa/disco.00009.au?dl=1'
p1534
sS'blues.00094.au'
p1535
S'https://www.dropbox.com/sh/afegxsw8f41vfbm/AAACipiuE1KH0IC64wPsSFa4a/blues.00094.au?dl=1'
p1536
sS'disco.00078.au'
p1537
S'https://www.dropbox.com/sh/raf3ew7bvle3z2p/AAArZqb-aFtHNe3IwXbsV4rfa/disco.00078.au?dl=1'
p1538
sS'hiphop.00092.au'
p1539
S'https://www.dropbox.com/sh/rknigscckkp15et/AACstQdpNdnJE8G8suZvw0Gxa/hiphop.00092.au?dl=1'
p1540
sS'country.00075.au'
p1541
S'https://www.dropbox.com/sh/tyz3t14h5r5i49n/AAAxiES-nvLnAh4gpyC3fe2Ta/country.00075.au?dl=1'
p1542
sS'disco.00012.au'
p1543
S'https://www.dropbox.com/sh/raf3ew7bvle3z2p/AABK-OlSg97Iiv3XG7ga_2oQa/disco.00012.au?dl=1'
p1544
sS'metal.00094.au'
p1545
S'https://www.dropbox.com/sh/gqhgkkuvg6akab8/AABpPq5j7P2sD43nlKn0vDOAa/metal.00094.au?dl=1'
p1546
sS'disco.00007.au'
p1547
S'https://www.dropbox.com/sh/raf3ew7bvle3z2p/AACgPhSbrKa4d7TTMebZfdQBa/disco.00007.au?dl=1'
p1548
sS'metal.00062.au'
p1549
S'https://www.dropbox.com/sh/gqhgkkuvg6akab8/AACcY6AldXglzx-fingCRkZNa/metal.00062.au?dl=1'
p1550
sS'hiphop.00087.au'
p1551
S'https://www.dropbox.com/sh/rknigscckkp15et/AAA-4KTKJSXEsA-flMx6UApLa/hiphop.00087.au?dl=1'
p1552
sS'country.00077.au'
p1553
S'https://www.dropbox.com/sh/tyz3t14h5r5i49n/AAB9zqA1fAkQu7Nyt5VStkO0a/country.00077.au?dl=1'
p1554
sS'classical.00095.au'
p1555
S'https://www.dropbox.com/sh/1cctr3dfrjccpdy/AADEnGwl8pKGOUXE4cGGfUYfa/classical.00095.au?dl=1'
p1556
sS'reggae.00061.au'
p1557
S'https://www.dropbox.com/sh/6unjnco4qqplysb/AAA45PTiXyCTXuqLrzlGMFKPa/reggae.00061.au?dl=1'
p1558
sS'rock.00013.au'
p1559
S'https://www.dropbox.com/sh/uotvtqu4g8fcu63/AACBI9z5p_D1dGpc7DAAUXhja/rock.00013.au?dl=1'
p1560
sS'rock.00050.au'
p1561
S'https://www.dropbox.com/sh/uotvtqu4g8fcu63/AAAnT9IWR9cRoZH0IGHSr9Ura/rock.00050.au?dl=1'
p1562
sS'hiphop.00045.au'
p1563
S'https://www.dropbox.com/sh/rknigscckkp15et/AAC6LkLIPgRkv8oX0B7ttCRQa/hiphop.00045.au?dl=1'
p1564
sS'hiphop.00068.au'
p1565
S'https://www.dropbox.com/sh/rknigscckkp15et/AAACLYENbbGd15YBqNF7rOGZa/hiphop.00068.au?dl=1'
p1566
sS'hiphop.00003.au'
p1567
S'https://www.dropbox.com/sh/rknigscckkp15et/AADK0bOxAp9b064ddc9TPu08a/hiphop.00003.au?dl=1'
p1568
sS'country.00042.au'
p1569
S'https://www.dropbox.com/sh/tyz3t14h5r5i49n/AABn_KkvSYXhRrBEXFwYxNBZa/country.00042.au?dl=1'
p1570
sS'metal.00041.au'
p1571
S'https://www.dropbox.com/sh/gqhgkkuvg6akab8/AABjTcOSipxsW05MPwGNPjsxa/metal.00041.au?dl=1'
p1572
sS'pop.00062.au'
p1573
S'https://www.dropbox.com/sh/r7a0ya4679z1w1s/AAC9kFwagyDat0HqDOEStgM_a/pop.00062.au?dl=1'
p1574
sS'jazz.00087.au'
p1575
S'https://www.dropbox.com/sh/ceji0dmoyie2orq/AAA_39VqrACvM-Jdzet7jd2ea/jazz.00087.au?dl=1'
p1576
sS'disco.00075.au'
p1577
S'https://www.dropbox.com/sh/raf3ew7bvle3z2p/AACyL-Jc6n1YWUwqYe7wGm8Ra/disco.00075.au?dl=1'
p1578
sS'pop.00023.au'
p1579
S'https://www.dropbox.com/sh/r7a0ya4679z1w1s/AACrVn5-V5RuVuCYHb2TzZrJa/pop.00023.au?dl=1'
p1580
sS'pop.00016.au'
p1581
S'https://www.dropbox.com/sh/r7a0ya4679z1w1s/AACbNLrS1HDBZXGcqkAfmOUUa/pop.00016.au?dl=1'
p1582
sS'hiphop.00018.au'
p1583
S'https://www.dropbox.com/sh/rknigscckkp15et/AABpRYG559s0x4vAo_aRH2PQa/hiphop.00018.au?dl=1'
p1584
sS'reggae.00035.au'
p1585
S'https://www.dropbox.com/sh/6unjnco4qqplysb/AAA-UsUDcbUEtmPq-wHXVyMna/reggae.00035.au?dl=1'
p1586
sS'jazz.00092.au'
p1587
S'https://www.dropbox.com/sh/ceji0dmoyie2orq/AABTzC3dHHuNfyZN-zPvMtCra/jazz.00092.au?dl=1'
p1588
sS'blues.00015.au'
p1589
S'https://www.dropbox.com/sh/afegxsw8f41vfbm/AADzBm_QVoDuoLiyHCtMsQdQa/blues.00015.au?dl=1'
p1590
sS'reggae.00088.au'
p1591
S'https://www.dropbox.com/sh/6unjnco4qqplysb/AAAm_lxm0Ck18K5BtsayqNNna/reggae.00088.au?dl=1'
p1592
sS'rock.00012.au'
p1593
S'https://www.dropbox.com/sh/uotvtqu4g8fcu63/AACZC-WPGkbOeYpMAK9HyjW0a/rock.00012.au?dl=1'
p1594
sS'rock.00067.au'
p1595
S'https://www.dropbox.com/sh/uotvtqu4g8fcu63/AAAb7AILxDa_teItsEuRj6tWa/rock.00067.au?dl=1'
p1596
sS'reggae.00033.au'
p1597
S'https://www.dropbox.com/sh/6unjnco4qqplysb/AAAItyMQAQ4G5ptBZxzOxv6na/reggae.00033.au?dl=1'
p1598
sS'reggae.00070.au'
p1599
S'https://www.dropbox.com/sh/6unjnco4qqplysb/AABvW4zMr_nO24Sq9NQYir7Ea/reggae.00070.au?dl=1'
p1600
sS'metal.00002.au'
p1601
S'https://www.dropbox.com/sh/gqhgkkuvg6akab8/AAAsJCTXu2M9CyUtIdOKjaTha/metal.00002.au?dl=1'
p1602
sS'hiphop.00075.au'
p1603
S'https://www.dropbox.com/sh/rknigscckkp15et/AAC6991CDtisIqOr3HbjCDETa/hiphop.00075.au?dl=1'
p1604
sS'hiphop.00059.au'
p1605
S'https://www.dropbox.com/sh/rknigscckkp15et/AADSbGI3Dvd185DW8Cd3yLuQa/hiphop.00059.au?dl=1'
p1606
sS'pop.00050.au'
p1607
S'https://www.dropbox.com/sh/r7a0ya4679z1w1s/AADo9RbeNJP654ZwMIBJ2E3La/pop.00050.au?dl=1'
p1608
sS'blues.00013.au'
p1609
S'https://www.dropbox.com/sh/afegxsw8f41vfbm/AAA4OO4jn-CBF00JdqPRmvUua/blues.00013.au?dl=1'
p1610
sS'reggae.00008.au'
p1611
S'https://www.dropbox.com/sh/6unjnco4qqplysb/AAAfrSYQSPxQSAmDX0LkHyMza/reggae.00008.au?dl=1'
p1612
sS'reggae.00029.au'
p1613
S'https://www.dropbox.com/sh/6unjnco4qqplysb/AACR1CcUuVzJmUzZEZfIISbIa/reggae.00029.au?dl=1'
p1614
sS'rock.00079.au'
p1615
S'https://www.dropbox.com/sh/uotvtqu4g8fcu63/AABgaTXlhwSyT-79wozNYaGaa/rock.00079.au?dl=1'
p1616
sS'country.00040.au'
p1617
S'https://www.dropbox.com/sh/tyz3t14h5r5i49n/AABRi-BFbrikO9GR7MkXkDRea/country.00040.au?dl=1'
p1618
sS'hiphop.00088.au'
p1619
S'https://www.dropbox.com/sh/rknigscckkp15et/AABtFVMbXIvI2wqIacKL1eBaa/hiphop.00088.au?dl=1'
p1620
sS'classical.00024.au'
p1621
S'https://www.dropbox.com/sh/1cctr3dfrjccpdy/AADKv9W0JxtaRlNHBFRGTB7wa/classical.00024.au?dl=1'
p1622
sS'disco.00068.au'
p1623
S'https://www.dropbox.com/sh/raf3ew7bvle3z2p/AABBL9_a_pvetFeUZayM2K4Ma/disco.00068.au?dl=1'
p1624
sS'country.00036.au'
p1625
S'https://www.dropbox.com/sh/tyz3t14h5r5i49n/AADhiyw5d56rzUpkHGLscN0Ya/country.00036.au?dl=1'
p1626
sS'reggae.00006.au'
p1627
S'https://www.dropbox.com/sh/6unjnco4qqplysb/AAACDgaA_6vw8s_OONauM25Xa/reggae.00006.au?dl=1'
p1628
sS'classical.00019.au'
p1629
S'https://www.dropbox.com/sh/1cctr3dfrjccpdy/AAAy7kd4lKXkMSO0CogMtziOa/classical.00019.au?dl=1'
p1630
sS'disco.00099.au'
p1631
S'https://www.dropbox.com/sh/raf3ew7bvle3z2p/AABKGae9BJa37eYnUDMv2AI7a/disco.00099.au?dl=1'
p1632
sS'reggae.00011.au'
p1633
S'https://www.dropbox.com/sh/6unjnco4qqplysb/AADkD-08scntQAw7iU63A5n7a/reggae.00011.au?dl=1'
p1634
sS'metal.00034.au'
p1635
S'https://www.dropbox.com/sh/gqhgkkuvg6akab8/AACUCqLD0jnpOv9Y6cLq0xnEa/metal.00034.au?dl=1'
p1636
sS'hiphop.00005.au'
p1637
S'https://www.dropbox.com/sh/rknigscckkp15et/AABTI62PAcTe5OGZ94sON3nfa/hiphop.00005.au?dl=1'
p1638
sS'blues.00039.au'
p1639
S'https://www.dropbox.com/sh/afegxsw8f41vfbm/AADxYxKkzHKBO25rRnD1WEJAa/blues.00039.au?dl=1'
p1640
sS'hiphop.00007.au'
p1641
S'https://www.dropbox.com/sh/rknigscckkp15et/AAB3wdo0zV6CpZNRi4uIWZLMa/hiphop.00007.au?dl=1'
p1642
sS'metal.00043.au'
p1643
S'https://www.dropbox.com/sh/gqhgkkuvg6akab8/AAAxKR8AJ8zr-arEBO62u_pOa/metal.00043.au?dl=1'
p1644
sS'classical.00051.au'
p1645
S'https://www.dropbox.com/sh/1cctr3dfrjccpdy/AADSc9PopkrUbo0EOyDpXFtqa/classical.00051.au?dl=1'
p1646
sS'blues.00058.au'
p1647
S'https://www.dropbox.com/sh/afegxsw8f41vfbm/AABxkdIJzFpXGyQfRQ_oRD91a/blues.00058.au?dl=1'
p1648
sS'reggae.00087.au'
p1649
S'https://www.dropbox.com/sh/6unjnco4qqplysb/AABd8x53pjlVIYPtW9nppw5Ba/reggae.00087.au?dl=1'
p1650
sS'rock.00095.au'
p1651
S'https://www.dropbox.com/sh/uotvtqu4g8fcu63/AAC2gBJC__6LRVz310ngCQXNa/rock.00095.au?dl=1'
p1652
sS'classical.00057.au'
p1653
S'https://www.dropbox.com/sh/1cctr3dfrjccpdy/AAC0XmnatYTCJIrvgMUKxb70a/classical.00057.au?dl=1'
p1654
sS'pop.00029.au'
p1655
S'https://www.dropbox.com/sh/r7a0ya4679z1w1s/AAAe0zH_c7s5wM-reYAEk5_Ta/pop.00029.au?dl=1'
p1656
sS'metal.00070.au'
p1657
S'https://www.dropbox.com/sh/gqhgkkuvg6akab8/AAC8_syUmH3K8NuYyFt5sTMSa/metal.00070.au?dl=1'
p1658
sS'blues.00048.au'
p1659
S'https://www.dropbox.com/sh/afegxsw8f41vfbm/AADCo9wJ6e3JxJazJZkhd73xa/blues.00048.au?dl=1'
p1660
sS'reggae.00085.au'
p1661
S'https://www.dropbox.com/sh/6unjnco4qqplysb/AADuzAd-88-zmrwC-VmB-GRNa/reggae.00085.au?dl=1'
p1662
sS'blues.00025.au'
p1663
S'https://www.dropbox.com/sh/afegxsw8f41vfbm/AABYuWByAWI7emSRMGXoeH2Ea/blues.00025.au?dl=1'
p1664
sS'metal.00047.au'
p1665
S'https://www.dropbox.com/sh/gqhgkkuvg6akab8/AADS1b-z7NicqTgigCErZmwQa/metal.00047.au?dl=1'
p1666
sS'hiphop.00074.au'
p1667
S'https://www.dropbox.com/sh/rknigscckkp15et/AAAxz4PX5wliMnSCVdsenqUqa/hiphop.00074.au?dl=1'
p1668
sS'classical.00084.au'
p1669
S'https://www.dropbox.com/sh/1cctr3dfrjccpdy/AACTuM5Fnf17vTnicPecQ_Mua/classical.00084.au?dl=1'
p1670
sS'disco.00021.au'
p1671
S'https://www.dropbox.com/sh/raf3ew7bvle3z2p/AABb3ojgQsobO21bys06VOkLa/disco.00021.au?dl=1'
p1672
sS'pop.00093.au'
p1673
S'https://www.dropbox.com/sh/r7a0ya4679z1w1s/AACS4FqxFoztNnjFK4oScGP_a/pop.00093.au?dl=1'
p1674
sS'jazz.00024.au'
p1675
S'https://www.dropbox.com/sh/ceji0dmoyie2orq/AAABoPzzy6ClVi2BC1ggBw_-a/jazz.00024.au?dl=1'
p1676
sS'country.00050.au'
p1677
S'https://www.dropbox.com/sh/tyz3t14h5r5i49n/AAAaAiXvk1A5Fxkfj8P_f1Qda/country.00050.au?dl=1'
p1678
sS'jazz.00017.au'
p1679
S'https://www.dropbox.com/sh/ceji0dmoyie2orq/AABhczp9y-QOt0_iNOvGZzBJa/jazz.00017.au?dl=1'
p1680
sS'pop.00059.au'
p1681
S'https://www.dropbox.com/sh/r7a0ya4679z1w1s/AACQPccqfv7zUWH4MNQUsTCya/pop.00059.au?dl=1'
p1682
sS'jazz.00088.au'
p1683
S'https://www.dropbox.com/sh/ceji0dmoyie2orq/AAAFWKxUSmOm652ixzRPYRoGa/jazz.00088.au?dl=1'
p1684
sS'metal.00030.au'
p1685
S'https://www.dropbox.com/sh/gqhgkkuvg6akab8/AACqPrmcVxXh8BglI-172oiMa/metal.00030.au?dl=1'
p1686
sS'blues.00060.au'
p1687
S'https://www.dropbox.com/sh/afegxsw8f41vfbm/AAChsLPIL1olZTAbZDUD5uBpa/blues.00060.au?dl=1'
p1688
sS'reggae.00068.au'
p1689
S'https://www.dropbox.com/sh/6unjnco4qqplysb/AABnVoBSP28-WeN2LVBjGNVla/reggae.00068.au?dl=1'
p1690
sS'country.00079.au'
p1691
S'https://www.dropbox.com/sh/tyz3t14h5r5i49n/AABUql023Uiv0ySPtCf1gCoEa/country.00079.au?dl=1'
p1692
sS'disco.00041.au'
p1693
S'https://www.dropbox.com/sh/raf3ew7bvle3z2p/AADShmNDHhTfHO-It52mw2x8a/disco.00041.au?dl=1'
p1694
sS'metal.00032.au'
p1695
S'https://www.dropbox.com/sh/gqhgkkuvg6akab8/AAAdvaGcuQ1AvR-yF8SlIRsSa/metal.00032.au?dl=1'
p1696
sS'classical.00060.au'
p1697
S'https://www.dropbox.com/sh/1cctr3dfrjccpdy/AADsmGjEO63RAUfACSzyvf2Za/classical.00060.au?dl=1'
p1698
sS'hiphop.00065.au'
p1699
S'https://www.dropbox.com/sh/rknigscckkp15et/AAB4_8_aXY3l6gO49gJ-W1rIa/hiphop.00065.au?dl=1'
p1700
sS'metal.00007.au'
p1701
S'https://www.dropbox.com/sh/gqhgkkuvg6akab8/AABvNJlV468-O-TE5wTzWSSVa/metal.00007.au?dl=1'
p1702
sS'classical.00023.au'
p1703
S'https://www.dropbox.com/sh/1cctr3dfrjccpdy/AAAESH2d7NZWTCfn2__CCG1Ua/classical.00023.au?dl=1'
p1704
sS'blues.00046.au'
p1705
S'https://www.dropbox.com/sh/afegxsw8f41vfbm/AACGqnbuqhLrB9dgzDTqC-Qma/blues.00046.au?dl=1'
p1706
sS'disco.00051.au'
p1707
S'https://www.dropbox.com/sh/raf3ew7bvle3z2p/AACyBcTSgPVBiiBtQ1ZVgx9Ra/disco.00051.au?dl=1'
p1708
sS'classical.00049.au'
p1709
S'https://www.dropbox.com/sh/1cctr3dfrjccpdy/AADCFOgYAcjS4o3r0lXG71eUa/classical.00049.au?dl=1'
p1710
sS'metal.00012.au'
p1711
S'https://www.dropbox.com/sh/gqhgkkuvg6akab8/AAAnCAf0ReOP1anHylG5ptCza/metal.00012.au?dl=1'
p1712
sS'pop.00056.au'
p1713
S'https://www.dropbox.com/sh/r7a0ya4679z1w1s/AAAF1bjAljFpzOnCHoC4DHcFa/pop.00056.au?dl=1'
p1714
sS'country.00020.au'
p1715
S'https://www.dropbox.com/sh/tyz3t14h5r5i49n/AABUb5eSc_iY6BC_lld75yy_a/country.00020.au?dl=1'
p1716
sS'disco.00092.au'
p1717
S'https://www.dropbox.com/sh/raf3ew7bvle3z2p/AABhxnSmzN1dEgoU-H7Det_9a/disco.00092.au?dl=1'
p1718
sS'hiphop.00064.au'
p1719
S'https://www.dropbox.com/sh/rknigscckkp15et/AACiEJdMahMnM9WHDK9M6aKMa/hiphop.00064.au?dl=1'
p1720
sS'jazz.00051.au'
p1721
S'https://www.dropbox.com/sh/ceji0dmoyie2orq/AAABmCEDU90J3nmgd255_0-Ka/jazz.00051.au?dl=1'
p1722
sS'blues.00093.au'
p1723
S'https://www.dropbox.com/sh/afegxsw8f41vfbm/AACUzs7poeAENaRxe4CW37f5a/blues.00093.au?dl=1'
p1724
sS'disco.00089.au'
p1725
S'https://www.dropbox.com/sh/raf3ew7bvle3z2p/AAD244cs9GSsmgaglQSr8aHAa/disco.00089.au?dl=1'
p1726
sS'pop.00095.au'
p1727
S'https://www.dropbox.com/sh/r7a0ya4679z1w1s/AABgs8YlUwYZVA3l4ryg8Ahya/pop.00095.au?dl=1'
p1728
sS'blues.00095.au'
p1729
S'https://www.dropbox.com/sh/afegxsw8f41vfbm/AAB39jIy2tFSs255RR7jEmL4a/blues.00095.au?dl=1'
p1730
sS'hiphop.00011.au'
p1731
S'https://www.dropbox.com/sh/rknigscckkp15et/AACYmhFTidCYmmstAXIHA3Fha/hiphop.00011.au?dl=1'
p1732
sS'country.00029.au'
p1733
S'https://www.dropbox.com/sh/tyz3t14h5r5i49n/AACNrQQQlQ0xYW48rh6-UBxNa/country.00029.au?dl=1'
p1734
sS'classical.00064.au'
p1735
S'https://www.dropbox.com/sh/1cctr3dfrjccpdy/AACAzvbt4X4aF_nX1FPNVWhFa/classical.00064.au?dl=1'
p1736
sS'country.00052.au'
p1737
S'https://www.dropbox.com/sh/tyz3t14h5r5i49n/AAD3dPuIj1kHILRi0VnDVoT4a/country.00052.au?dl=1'
p1738
sS'classical.00062.au'
p1739
S'https://www.dropbox.com/sh/1cctr3dfrjccpdy/AAAwidWhFLTOmve1wft04FNea/classical.00062.au?dl=1'
p1740
sS'hiphop.00096.au'
p1741
S'https://www.dropbox.com/sh/rknigscckkp15et/AADIZ44Xr_9jVU-QpNmQzr-Wa/hiphop.00096.au?dl=1'
p1742
sS'disco.00058.au'
p1743
S'https://www.dropbox.com/sh/raf3ew7bvle3z2p/AABEwez6Vxp2nEtuBiRjmExka/disco.00058.au?dl=1'
p1744
sS'hiphop.00050.au'
p1745
S'https://www.dropbox.com/sh/rknigscckkp15et/AAD13Bg18f0D1sMMDenkmPWya/hiphop.00050.au?dl=1'
p1746
sS'blues.00066.au'
p1747
S'https://www.dropbox.com/sh/afegxsw8f41vfbm/AABmbx4-oEExfXtog59XZFDEa/blues.00066.au?dl=1'
p1748
sS'metal.00016.au'
p1749
S'https://www.dropbox.com/sh/gqhgkkuvg6akab8/AABfpVBZqfWEJt06eJccK98ra/metal.00016.au?dl=1'
p1750
sS'hiphop.00081.au'
p1751
S'https://www.dropbox.com/sh/rknigscckkp15et/AAArLjU88vZc1CgZKEvQpgjAa/hiphop.00081.au?dl=1'
p1752
sS'reggae.00023.au'
p1753
S'https://www.dropbox.com/sh/6unjnco4qqplysb/AAA5PigrxEKWW8wcjX0gK0zVa/reggae.00023.au?dl=1'
p1754
sS'metal.00092.au'
p1755
S'https://www.dropbox.com/sh/gqhgkkuvg6akab8/AACGEl0qmS0DiaWYPwSPE6HBa/metal.00092.au?dl=1'
p1756
sS'hiphop.00056.au'
p1757
S'https://www.dropbox.com/sh/rknigscckkp15et/AACjVy0TMpPdfyFHvvE2s1WFa/hiphop.00056.au?dl=1'
p1758
sS'metal.00086.au'
p1759
S'https://www.dropbox.com/sh/gqhgkkuvg6akab8/AACVyY5fIb_FBNhhSiNj3Dw0a/metal.00086.au?dl=1'
p1760
sS'blues.00064.au'
p1761
S'https://www.dropbox.com/sh/afegxsw8f41vfbm/AADa6muUcKAEz4wNwIPmINfra/blues.00064.au?dl=1'
p1762
sS'hiphop.00017.au'
p1763
S'https://www.dropbox.com/sh/rknigscckkp15et/AAB7IxfAhgaBB1kniF9lH91Ia/hiphop.00017.au?dl=1'
p1764
sS'reggae.00022.au'
p1765
S'https://www.dropbox.com/sh/6unjnco4qqplysb/AAAN3HBIww_xrV1G7_yFxFELa/reggae.00022.au?dl=1'
p1766
sS'reggae.00038.au'
p1767
S'https://www.dropbox.com/sh/6unjnco4qqplysb/AABBOeG3D-IyEOOqAmDsMmPka/reggae.00038.au?dl=1'
p1768
sS'hiphop.00083.au'
p1769
S'https://www.dropbox.com/sh/rknigscckkp15et/AABzWWR6DIAthlbNVikKukrsa/hiphop.00083.au?dl=1'
p1770
sS'classical.00099.au'
p1771
S'https://www.dropbox.com/sh/1cctr3dfrjccpdy/AADurKNflu0jg5EqVdRN6PlLa/classical.00099.au?dl=1'
p1772
sS'disco.00086.au'
p1773
S'https://www.dropbox.com/sh/raf3ew7bvle3z2p/AAD5qOjBZuueW2lTEG2sVmXfa/disco.00086.au?dl=1'
p1774
sS'classical.00097.au'
p1775
S'https://www.dropbox.com/sh/1cctr3dfrjccpdy/AAAg0SFrdJ_b0s9xJ631Gv6ia/classical.00097.au?dl=1'
p1776
sS'disco.00024.au'
p1777
S'https://www.dropbox.com/sh/raf3ew7bvle3z2p/AACZGRDBRYrXcpt7kKGf6fCPa/disco.00024.au?dl=1'
p1778
sS'metal.00060.au'
p1779
S'https://www.dropbox.com/sh/gqhgkkuvg6akab8/AACDPgQ-wkvl4IoIyig2JF_ma/metal.00060.au?dl=1'
p1780
sS'metal.00079.au'
p1781
S'https://www.dropbox.com/sh/gqhgkkuvg6akab8/AACoabbbpQBL5RmI5Nxx1ix3a/metal.00079.au?dl=1'
p1782
sS'classical.00080.au'
p1783
S'https://www.dropbox.com/sh/1cctr3dfrjccpdy/AADnSztaYI9Nm5x6_9BPjfqba/classical.00080.au?dl=1'
p1784
sS'disco.00084.au'
p1785
S'https://www.dropbox.com/sh/raf3ew7bvle3z2p/AACxFabW6QdBSFt8FUIJsmMsa/disco.00084.au?dl=1'
p1786
sS'blues.00010.au'
p1787
S'https://www.dropbox.com/sh/afegxsw8f41vfbm/AACva2RFxS3l1-GKliy0antia/blues.00010.au?dl=1'
p1788
sS'jazz.00053.au'
p1789
S'https://www.dropbox.com/sh/ceji0dmoyie2orq/AAA4ifvcNJpSzQ2OgW0zKMSOa/jazz.00053.au?dl=1'
p1790
sS'classical.00082.au'
p1791
S'https://www.dropbox.com/sh/1cctr3dfrjccpdy/AADDPkobf9imfV2-ZVOik8Gga/classical.00082.au?dl=1'
p1792
sS'disco.00005.au'
p1793
S'https://www.dropbox.com/sh/raf3ew7bvle3z2p/AAAl17ISOqCvBTSwzLPe-4A9a/disco.00005.au?dl=1'
p1794
sS'blues.00022.au'
p1795
S'https://www.dropbox.com/sh/afegxsw8f41vfbm/AABSoB2VftJv2ark1iyaKKSja/blues.00022.au?dl=1'
p1796
sS'blues.00071.au'
p1797
S'https://www.dropbox.com/sh/afegxsw8f41vfbm/AABFSwg2l5cWCR_bPYBQvFaVa/blues.00071.au?dl=1'
p1798
sS'country.00070.au'
p1799
S'https://www.dropbox.com/sh/tyz3t14h5r5i49n/AADrl1CQQqsQL8Nn4RLgtG1Ca/country.00070.au?dl=1'
p1800
sS'hiphop.00053.au'
p1801
S'https://www.dropbox.com/sh/rknigscckkp15et/AACOFNxCjwGkyavD3TDcm9K1a/hiphop.00053.au?dl=1'
p1802
sS'jazz.00062.au'
p1803
S'https://www.dropbox.com/sh/ceji0dmoyie2orq/AABrYSw014eVhNQ7e0j72WKHa/jazz.00062.au?dl=1'
p1804
sS'reggae.00066.au'
p1805
S'https://www.dropbox.com/sh/6unjnco4qqplysb/AABQY-9W9N2N8z7ZtB3gtMFva/reggae.00066.au?dl=1'
p1806
sS'pop.00012.au'
p1807
S'https://www.dropbox.com/sh/r7a0ya4679z1w1s/AADnrcUOSfKEaSOj022BKd-Ja/pop.00012.au?dl=1'
p1808
sS'blues.00077.au'
p1809
S'https://www.dropbox.com/sh/afegxsw8f41vfbm/AAAd3RVr58SzLGEb3sBRUao5a/blues.00077.au?dl=1'
p1810
sS'jazz.00064.au'
p1811
S'https://www.dropbox.com/sh/ceji0dmoyie2orq/AAAhWRdDj_d2wEv3fgFRXyGBa/jazz.00064.au?dl=1'
p1812
sS'rock.00089.au'
p1813
S'https://www.dropbox.com/sh/uotvtqu4g8fcu63/AADiK-rTeboLc-KbpaHtytSOa/rock.00089.au?dl=1'
p1814
sS'hiphop.00035.au'
p1815
S'https://www.dropbox.com/sh/rknigscckkp15et/AACJLuaayKaIJrFGmEfI6CC1a/hiphop.00035.au?dl=1'
p1816
sS'jazz.00082.au'
p1817
S'https://www.dropbox.com/sh/ceji0dmoyie2orq/AADZivi3h34jDGOkxHkhBIs2a/jazz.00082.au?dl=1'
p1818
sS'reggae.00027.au'
p1819
S'https://www.dropbox.com/sh/6unjnco4qqplysb/AACa2qj9xOJFqnQFnPN1i4P0a/reggae.00027.au?dl=1'
p1820
sS'rock.00065.au'
p1821
S'https://www.dropbox.com/sh/uotvtqu4g8fcu63/AADhJ3Mrkwzbk2IfI9f3_lqSa/rock.00065.au?dl=1'
p1822
sS'jazz.00080.au'
p1823
S'https://www.dropbox.com/sh/ceji0dmoyie2orq/AABblj3NX7_yER4G6aTeZdpga/jazz.00080.au?dl=1'
p1824
sS'metal.00035.au'
p1825
S'https://www.dropbox.com/sh/gqhgkkuvg6akab8/AAAQmq5t5zr4lOHdblI5dyIla/metal.00035.au?dl=1'
p1826
sS'reggae.00093.au'
p1827
S'https://www.dropbox.com/sh/6unjnco4qqplysb/AABF1-NJE-dQXhGiLSNCwk-ya/reggae.00093.au?dl=1'
p1828
sS'country.00098.au'
p1829
S'https://www.dropbox.com/sh/tyz3t14h5r5i49n/AACMePnTQwzmm0zAg7TgGLfza/country.00098.au?dl=1'
p1830
sS'classical.00067.au'
p1831
S'https://www.dropbox.com/sh/1cctr3dfrjccpdy/AACZYRCVgwL_DTfgH8MeGGsQa/classical.00067.au?dl=1'
p1832
sS'jazz.00097.au'
p1833
S'https://www.dropbox.com/sh/ceji0dmoyie2orq/AAAXZDZX5d_7ri92XB1UpU3Ha/jazz.00097.au?dl=1'
p1834
sS'metal.00000.au'
p1835
S'https://www.dropbox.com/sh/gqhgkkuvg6akab8/AADj6LTjia3u5XLluOVk3fu-a/metal.00000.au?dl=1'
p1836
sS'classical.00065.au'
p1837
S'https://www.dropbox.com/sh/1cctr3dfrjccpdy/AAAqY1tzO7LcrE9Zn5JPE3Eha/classical.00065.au?dl=1'
p1838
sS'country.00028.au'
p1839
S'https://www.dropbox.com/sh/tyz3t14h5r5i49n/AAAK2JNfu47GPpk1VQR9otr-a/country.00028.au?dl=1'
p1840
sS'jazz.00099.au'
p1841
S'https://www.dropbox.com/sh/ceji0dmoyie2orq/AABhfmnbObC8RmAsoq5ea9oJa/jazz.00099.au?dl=1'
p1842
sS'reggae.00047.au'
p1843
S'https://www.dropbox.com/sh/6unjnco4qqplysb/AABjMTJr4rL3YezYOZROHTKza/reggae.00047.au?dl=1'
p1844
sS'hiphop.00091.au'
p1845
S'https://www.dropbox.com/sh/rknigscckkp15et/AAB40tsgufIOo0DNKLGq2fUda/hiphop.00091.au?dl=1'
p1846
sS'hiphop.00046.au'
p1847
S'https://www.dropbox.com/sh/rknigscckkp15et/AAC1nnPVqJXu4NXuUEt6FEB5a/hiphop.00046.au?dl=1'
p1848
sS'classical.00041.au'
p1849
S'https://www.dropbox.com/sh/1cctr3dfrjccpdy/AAAWA16z4TlbcyH3gbIsMw3-a/classical.00041.au?dl=1'
p1850
sS'pop.00099.au'
p1851
S'https://www.dropbox.com/sh/r7a0ya4679z1w1s/AABMdNLO18hmVhpPVHPUO2Ela/pop.00099.au?dl=1'
p1852
sS'blues.00004.au'
p1853
S'https://www.dropbox.com/sh/afegxsw8f41vfbm/AABs8my3eALpSxKgZRnvXMnTa/blues.00004.au?dl=1'
p1854
sS'disco.00003.au'
p1855
S'https://www.dropbox.com/sh/raf3ew7bvle3z2p/AACaIFCeK0x_UYKd7e96aeqNa/disco.00003.au?dl=1'
p1856
sS'pop.00097.au'
p1857
S'https://www.dropbox.com/sh/r7a0ya4679z1w1s/AABmauX7J2pLjoGnlH6WIcKNa/pop.00097.au?dl=1'
p1858
sS'country.00034.au'
p1859
S'https://www.dropbox.com/sh/tyz3t14h5r5i49n/AACIor7jD4jxRbaVo7A1v0sCa/country.00034.au?dl=1'
p1860
sS'reggae.00048.au'
p1861
S'https://www.dropbox.com/sh/6unjnco4qqplysb/AACRQDKg0j6aPIQEQwU4UwgAa/reggae.00048.au?dl=1'
p1862
sS'rock.00039.au'
p1863
S'https://www.dropbox.com/sh/uotvtqu4g8fcu63/AAALiKY6oCN1_aW6oCrCXp8da/rock.00039.au?dl=1'
p1864
sS'country.00037.au'
p1865
S'https://www.dropbox.com/sh/tyz3t14h5r5i49n/AABathQbOgHidzrIIaJxBq96a/country.00037.au?dl=1'
p1866
sS'pop.00047.au'
p1867
S'https://www.dropbox.com/sh/r7a0ya4679z1w1s/AAB6cGK6Pm3dn2f0hgi6yOq-a/pop.00047.au?dl=1'
p1868
sS'country.00068.au'
p1869
S'https://www.dropbox.com/sh/tyz3t14h5r5i49n/AABfG_F0kBLwWarXN4URFvq-a/country.00068.au?dl=1'
p1870
sS'pop.00054.au'
p1871
S'https://www.dropbox.com/sh/r7a0ya4679z1w1s/AACLLVf5jkFcic6fhboBKWxaa/pop.00054.au?dl=1'
p1872
sS'classical.00010.au'
p1873
S'https://www.dropbox.com/sh/1cctr3dfrjccpdy/AAB9RzU8zLU_KicZzn1Z9QRLa/classical.00010.au?dl=1'
p1874
sS'reggae.00083.au'
p1875
S'https://www.dropbox.com/sh/6unjnco4qqplysb/AADOUQaC2TcIt72GtUdOE6s_a/reggae.00083.au?dl=1'
p1876
sS'hiphop.00019.au'
p1877
S'https://www.dropbox.com/sh/rknigscckkp15et/AADk1VNCLZQJkQEkgDn6Vu7Aa/hiphop.00019.au?dl=1'
p1878
sS'hiphop.00036.au'
p1879
S'https://www.dropbox.com/sh/rknigscckkp15et/AACd1ptXU3tTpROQXgBLnwT3a/hiphop.00036.au?dl=1'
p1880
sS'classical.00070.au'
p1881
S'https://www.dropbox.com/sh/1cctr3dfrjccpdy/AACiY4dhvVADg1xiI1f2JqOAa/classical.00070.au?dl=1'
p1882
sS'metal.00054.au'
p1883
S'https://www.dropbox.com/sh/gqhgkkuvg6akab8/AADiBSdPAHn2HrMcl9QqXbBta/metal.00054.au?dl=1'
p1884
sS'country.00062.au'
p1885
S'https://www.dropbox.com/sh/tyz3t14h5r5i49n/AAA5TYrDaZgTskylCvqvH8Bba/country.00062.au?dl=1'
p1886
sS'hiphop.00063.au'
p1887
S'https://www.dropbox.com/sh/rknigscckkp15et/AAD4pR2F8YIIBQjIj6u5SGhka/hiphop.00063.au?dl=1'
p1888
sS'pop.00058.au'
p1889
S'https://www.dropbox.com/sh/r7a0ya4679z1w1s/AAAAw2lnc5UFhZ9ktevzms8Ia/pop.00058.au?dl=1'
p1890
sS'metal.00099.au'
p1891
S'https://www.dropbox.com/sh/gqhgkkuvg6akab8/AADjguWo7Bf6w1KT-PH1h2iOa/metal.00099.au?dl=1'
p1892
sS'metal.00059.au'
p1893
S'https://www.dropbox.com/sh/gqhgkkuvg6akab8/AAC1BXRU0mrMBBMQx8j_bGi0a/metal.00059.au?dl=1'
p1894
sS'jazz.00036.au'
p1895
S'https://www.dropbox.com/sh/ceji0dmoyie2orq/AAB1f2OFwEAFykHNu8jh0Pxda/jazz.00036.au?dl=1'
p1896
sS'pop.00037.au'
p1897
S'https://www.dropbox.com/sh/r7a0ya4679z1w1s/AABPzJc14UWN972tsfs4wu5Wa/pop.00037.au?dl=1'
p1898
sS'blues.00036.au'
p1899
S'https://www.dropbox.com/sh/afegxsw8f41vfbm/AADxTP7SPU0wlwhLsNIL_sJba/blues.00036.au?dl=1'
p1900
sS'classical.00071.au'
p1901
S'https://www.dropbox.com/sh/1cctr3dfrjccpdy/AADSAvMJBeLxp441Q8sajR6la/classical.00071.au?dl=1'
p1902
sS'reggae.00097.au'
p1903
S'https://www.dropbox.com/sh/6unjnco4qqplysb/AABVp2FQYQoTPfigipvPk4ova/reggae.00097.au?dl=1'
p1904
sS'jazz.00009.au'
p1905
S'https://www.dropbox.com/sh/rknigscckkp15et/AADprXOJd_noX13iYTF10auxa/jazz.00009.au?dl=1'
p1906
sS'classical.00047.au'
p1907
S'https://www.dropbox.com/sh/1cctr3dfrjccpdy/AABFWdPnQErzAuLm5APG1mjVa/classical.00047.au?dl=1'
p1908
sS'jazz.00026.au'
p1909
S'https://www.dropbox.com/sh/ceji0dmoyie2orq/AAA8Gp1qttV4ztjol-1D7HLTa/jazz.00026.au?dl=1'
p1910
sS'rock.00034.au'
p1911
S'https://www.dropbox.com/sh/uotvtqu4g8fcu63/AAAyUL7nG3L0nJG-b8V4pf4ha/rock.00034.au?dl=1'
p1912
sS'rock.00054.au'
p1913
S'https://www.dropbox.com/sh/uotvtqu4g8fcu63/AAAuOxcQBUVYT6Vv_gxVe_4Oa/rock.00054.au?dl=1'
p1914
sS'reggae.00045.au'
p1915
S'https://www.dropbox.com/sh/6unjnco4qqplysb/AADGOddtTdwAGDJj4yo3Lq4ga/reggae.00045.au?dl=1'
p1916
sS'disco.00096.au'
p1917
S'https://www.dropbox.com/sh/raf3ew7bvle3z2p/AABSvGTjNUGRxQODZcQSRvAVa/disco.00096.au?dl=1'
p1918
sS'country.00013.au'
p1919
S'https://www.dropbox.com/sh/tyz3t14h5r5i49n/AABkwIGBmlhU0w0LFtaicj12a/country.00013.au?dl=1'
p1920
sS'jazz.00096.au'
p1921
S'https://www.dropbox.com/sh/ceji0dmoyie2orq/AAA7H27XtOluYTkf_tBnBtHWa/jazz.00096.au?dl=1'
p1922
sS'pop.00077.au'
p1923
S'https://www.dropbox.com/sh/r7a0ya4679z1w1s/AABj9zEpBnNt4u7U8HAIzyX7a/pop.00077.au?dl=1'
p1924
sS'metal.00004.au'
p1925
S'https://www.dropbox.com/sh/gqhgkkuvg6akab8/AADSHEJQSLuB2qU3axIS8oEea/metal.00004.au?dl=1'
p1926
sS'country.00011.au'
p1927
S'https://www.dropbox.com/sh/tyz3t14h5r5i49n/AAC7JMMaRnPwtargsKDOGa_ka/country.00011.au?dl=1'
p1928
sS'metal.00097.au'
p1929
S'https://www.dropbox.com/sh/gqhgkkuvg6akab8/AAAG18QvKKqbyPGtKcu7Xobka/metal.00097.au?dl=1'
p1930
sS'classical.00069.au'
p1931
S'https://www.dropbox.com/sh/1cctr3dfrjccpdy/AACLGwnmkaNFdCB9Z7gP1vCda/classical.00069.au?dl=1'
p1932
sS'country.00024.au'
p1933
S'https://www.dropbox.com/sh/tyz3t14h5r5i49n/AAA8NLmkTXh4Kc9DSQJFZB0Qa/country.00024.au?dl=1'
p1934
sS'hiphop.00069.au'
p1935
S'https://www.dropbox.com/sh/rknigscckkp15et/AAAbHwm0_IUqmIFn4RJz18vPa/hiphop.00069.au?dl=1'
p1936
sS'country.00064.au'
p1937
S'https://www.dropbox.com/sh/tyz3t14h5r5i49n/AAD8qb1mkJ_A-7R8H3tHIeFJa/country.00064.au?dl=1'
p1938
sS'hiphop.00000.au'
p1939
S'https://www.dropbox.com/sh/rknigscckkp15et/AABPaFtJ2rghIMokaF3YD9Yva/hiphop.00000.au?dl=1'
p1940
sS'blues.00001.au'
p1941
S'https://www.dropbox.com/sh/afegxsw8f41vfbm/AABPkbXlp03vtH211FJvzXQVa/blues.00001.au?dl=1'
p1942
sS'blues.00011.au'
p1943
S'https://www.dropbox.com/sh/afegxsw8f41vfbm/AADg146Q8plZLdXElzFK28-ba/blues.00011.au?dl=1'
p1944
sS'hiphop.00058.au'
p1945
S'https://www.dropbox.com/sh/rknigscckkp15et/AADDIdjnuPhT2nlOO4GmjANca/hiphop.00058.au?dl=1'
p1946
sS'classical.00053.au'
p1947
S'https://www.dropbox.com/sh/1cctr3dfrjccpdy/AACVZNuRFa9nfpHQKORvz2OGa/classical.00053.au?dl=1'
p1948
sS'classical.00042.au'
p1949
S'https://www.dropbox.com/sh/1cctr3dfrjccpdy/AAAhnAIFwO5ap1IVoX2kaZ3Ga/classical.00042.au?dl=1'
p1950
sS'blues.00018.au'
p1951
S'https://www.dropbox.com/sh/afegxsw8f41vfbm/AADxYb8qa6PC9cXiNIWPGETGa/blues.00018.au?dl=1'
p1952
sS'disco.00070.au'
p1953
S'https://www.dropbox.com/sh/raf3ew7bvle3z2p/AADZyYFVozmcoxtpGBZazC3Za/disco.00070.au?dl=1'
p1954
sS'pop.00030.au'
p1955
S'https://www.dropbox.com/sh/r7a0ya4679z1w1s/AABshPJitcB5sHZwPF02ScXSa/pop.00030.au?dl=1'
p1956
sS'pop.00020.au'
p1957
S'https://www.dropbox.com/sh/r7a0ya4679z1w1s/AAC2xd4kG0rUDEivFeEkTHUaa/pop.00020.au?dl=1'
p1958
sS'country.00058.au'
p1959
S'https://www.dropbox.com/sh/tyz3t14h5r5i49n/AAAdyTWoICZLYa3Br2T4hyyOa/country.00058.au?dl=1'
p1960
sS'classical.00034.au'
p1961
S'https://www.dropbox.com/sh/1cctr3dfrjccpdy/AACeX0jR7m1ETatahCjg8Sdva/classical.00034.au?dl=1'
p1962
sS'pop.00089.au'
p1963
S'https://www.dropbox.com/sh/r7a0ya4679z1w1s/AACb1uNmOPR3faKQwsAkrzUla/pop.00089.au?dl=1'
p1964
sS'reggae.00013.au'
p1965
S'https://www.dropbox.com/sh/6unjnco4qqplysb/AACCfhvap4bufqT-ogjuBj5Aa/reggae.00013.au?dl=1'
p1966
sS'rock.00096.au'
p1967
S'https://www.dropbox.com/sh/uotvtqu4g8fcu63/AAACh_ES92jF03RQhX3Xd6v8a/rock.00096.au?dl=1'
p1968
sS'rock.00072.au'
p1969
S'https://www.dropbox.com/sh/uotvtqu4g8fcu63/AAAyK8wgMcJgLYwDgvnZnFAma/rock.00072.au?dl=1'
p1970
sS'disco.00076.au'
p1971
S'https://www.dropbox.com/sh/raf3ew7bvle3z2p/AACSbtMCMwPm9-48V2FR-IOXa/disco.00076.au?dl=1'
p1972
sS'pop.00090.au'
p1973
S'https://www.dropbox.com/sh/r7a0ya4679z1w1s/AACxDsX94LDtxfW5nJEmrb3za/pop.00090.au?dl=1'
p1974
sS'metal.00057.au'
p1975
S'https://www.dropbox.com/sh/gqhgkkuvg6akab8/AAD_fNoWA6i9sgF-1yA7MpRBa/metal.00057.au?dl=1'
p1976
sS'blues.00009.au'
p1977
S'https://www.dropbox.com/sh/afegxsw8f41vfbm/AABFM3jS-0Fr1nZ1OaxpnZrna/blues.00009.au?dl=1'
p1978
sS'reggae.00015.au'
p1979
S'https://www.dropbox.com/sh/6unjnco4qqplysb/AADL1GZ-tDAtYrizs2xASkhqa/reggae.00015.au?dl=1'
p1980
sS'jazz.00018.au'
p1981
S'https://www.dropbox.com/sh/ceji0dmoyie2orq/AAAgfZ4JF8BNiaVy4JpEzV7za/jazz.00018.au?dl=1'
p1982
s.